ccollections
OrderedDict
p0
((lp1
(lp2
S'coemg\xc3\xa1in'
p3
aI0
aa(lp4
S'limited'
p5
aI1
aa(lp6
S'writings'
p7
aI2
aa(lp8
S'folklore'
p9
aI3
aa(lp10
S'dynamic'
p11
aI4
aa(lp12
S'four'
p13
aI5
aa(lp14
S'demanded'
p15
aI6
aa(lp16
S'prefix'
p17
aI7
aa(lp18
S'asian'
p19
aI8
aa(lp20
S'aviation'
p21
aI9
aa(lp22
S'consists'
p23
aI10
aa(lp24
S'oldest'
p25
aI11
aa(lp26
S'towns'
p27
aI12
aa(lp28
S'aggression'
p29
aI13
aa(lp30
S'weitling'
p31
aI14
aa(lp32
S'relationships'
p33
aI15
aa(lp34
S'whose'
p35
aI16
aa(lp36
S'votes'
p37
aI17
aa(lp38
S'non-coercive'
p39
aI18
aa(lp40
S'granting'
p41
aI19
aa(lp42
S'paris'
p43
aI20
aa(lp44
S'contained'
p45
aI21
aa(lp46
S'sindicale'
p47
aI22
aa(lp48
S'1.1%'
p49
aI23
aa(lp50
S'popolo'
p51
aI24
aa(lp52
S'loch'
p53
aI25
aa(lp54
S'under'
p55
aI26
aa(lp56
S'teaching'
p57
aI27
aa(lp58
S'tweed'
p59
aI28
aa(lp60
S'characterised'
p61
aI29
aa(lp62
S'meadows'
p63
aI30
aa(lp64
S'1958'
p65
aI31
aa(lp66
S'm\xc2\xb3'
p67
aI32
aa(lp68
S'merchant'
p69
aI33
aa(lp70
S'plants'
p71
aI34
aa(lp72
S"ghibli's"
p73
aI35
aa(lp74
S'rational'
p75
aI36
aa(lp76
S'psas'
p77
aI37
aa(lp78
S"mother's"
p79
aI38
aa(lp80
S'regional'
p81
aI39
aa(lp82
S'railways'
p83
aI40
aa(lp84
S"women's"
p85
aI41
aa(lp86
S"tezuka's"
p87
aI42
aa(lp88
S'replaces'
p89
aI43
aa(lp90
S'every'
p91
aI44
aa(lp92
S'reforms'
p93
aI45
aa(lp94
S'second-stage'
p95
aI46
aa(lp96
S'freethinkers'
p97
aI47
aa(lp98
S'electronics'
p99
aI48
aa(lp100
S'encounter'
p101
aI49
aa(lp102
S'believed'
p103
aI50
aa(lp104
S'school'
p105
aI51
aa(lp106
S'dominate'
p107
aI52
aa(lp108
S'prize'
p109
aI53
aa(lp110
S'\xc3\x89tienne'
p111
aI54
aa(lp112
S'crops'
p113
aI55
aa(lp114
S'companies'
p115
aI56
aa(lp116
S'solution'
p117
aI57
aa(lp118
S'4\xc3\x974'
p119
aI58
aa(lp120
S'herbert'
p121
aI59
aa(lp122
S'gaelic'
p123
aI60
aa(lp124
S'hague'
p125
aI61
aa(lp126
S'differentiates'
p127
aI62
aa(lp128
S'guiding'
p129
aI63
aa(lp130
S'1940s'
p131
aI64
aa(lp132
S'freetown'
p133
aI65
aa(lp134
S'favoured'
p135
aI66
aa(lp136
S'force'
p137
aI67
aa(lp138
S'leaders'
p139
aI68
aa(lp140
S'completely'
p141
aI69
aa(lp142
S'phones'
p143
aI70
aa(lp144
S'consistent'
p145
aI71
aa(lp146
S'hanging'
p147
aI72
aa(lp148
S'estimates'
p149
aI73
aa(lp150
S'direct'
p151
aI74
aa(lp152
S'across'
p153
aI75
aa(lp154
S'likely'
p155
aI76
aa(lp156
S'exchangeable'
p157
aI77
aa(lp158
S'co-editor'
p159
aI78
aa(lp160
S'consenting'
p161
aI79
aa(lp162
S'post-leftists'
p163
aI80
aa(lp164
S'implemented'
p165
aI81
aa(lp166
S'expressive'
p167
aI82
aa(lp168
S'incompatible'
p169
aI83
aa(lp170
S'machines'
p171
aI84
aa(lp172
S'even'
p173
aI85
aa(lp174
S'web-based'
p175
aI86
aa(lp176
S'errors'
p177
aI87
aa(lp178
S'christ'
p179
aI88
aa(lp180
S'deliberate'
p181
aI89
aa(lp182
S'decisions'
p183
aI90
aa(lp184
S'contributed'
p185
aI91
aa(lp186
S'revolver'
p187
aI92
aa(lp188
S'liberty'
p189
aI93
aa(lp190
S'children'
p191
aI94
aa(lp192
S'statoil'
p193
aI95
aa(lp194
S'sexuality'
p195
aI96
aa(lp196
S'above'
p197
aI97
aa(lp198
S'conduct'
p199
aI98
aa(lp200
S'new'
p201
aI99
aa(lp202
S'net'
p203
aI100
aa(lp204
S'non-violence'
p205
aI101
aa(lp206
S'disney'
p207
aI102
aa(lp208
S'pioneering'
p209
aI103
aa(lp210
S'niche'
p211
aI104
aa(lp212
S'simultaneously'
p213
aI105
aa(lp214
S'illich'
p215
aI106
aa(lp216
S'men'
p217
aI107
aa(lp218
S'anarcho-hedonist'
p219
aI108
aa(lp220
S'drew'
p221
aI109
aa(lp222
S'cadres'
p223
aI110
aa(lp224
S'beck'
p225
aI111
aa(lp226
S'protection'
p227
aI112
aa(lp228
S'china'
p229
aI113
aa(lp230
S'11.</ref>'
p231
aI114
aa(lp232
S'active'
p233
aI115
aa(lp234
S'affiliated'
p235
aI116
aa(lp236
S'100'
p237
aI117
aa(lp238
S'establishment'
p239
aI118
aa(lp240
S'kihachir\xc5\x8d'
p241
aI119
aa(lp242
S'anarchism'
p243
aI120
aa(lp244
S'daughter'
p245
aI121
aa(lp246
S'forum'
p247
aI122
aa(lp248
S'leaves'
p249
aI123
aa(lp250
S'changed'
p251
aI124
aa(lp252
S'proportioned'
p253
aI125
aa(lp254
S'reports'
p255
aI126
aa(lp256
S'credit'
p257
aI127
aa(lp258
S'calculations'
p259
aI128
aa(lp260
S'launched'
p261
aI129
aa(lp262
S'abolition'
p263
aI130
aa(lp264
S'stressed'
p265
aI131
aa(lp266
S'calculators'
p267
aI132
aa(lp268
S'military'
p269
aI133
aa(lp270
S'anarchist'
p271
aI134
aa(lp272
S'yuri'
p273
aI135
aa(lp274
S'lois'
p275
aI136
aa(lp276
S'moray'
p277
aI137
aa(lp278
S'fantastic'
p279
aI138
aa(lp280
S'spooks'
p281
aI139
aa(lp282
S'classification'
p283
aI140
aa(lp284
S'shudan'
p285
aI141
aa(lp286
S'schooling'
p287
aI142
aa(lp288
S'excuse'
p289
aI143
aa(lp290
S'highly'
p291
aI144
aa(lp292
S'stirner'
p293
aI145
aa(lp294
S'mecha'
p295
aI146
aa(lp296
S'inequality'
p297
aI147
aa(lp298
S'moral'
p299
aI148
aa(lp300
S'achievable'
p301
aI149
aa(lp302
S'perpetuates'
p303
aI150
aa(lp304
S'des'
p305
aI151
aa(lp306
S'unit'
p307
aI152
aa(lp308
S'opponents'
p309
aI153
aa(lp310
S'plot'
p311
aI154
aa(lp312
S'ecchi'
p313
aI155
aa(lp314
S'spoke'
p315
aI156
aa(lp316
S'would'
p317
aI157
aa(lp318
S'army'
p319
aI158
aa(lp320
S'mexico'
p321
aI159
aa(lp322
S'negative'
p323
aI160
aa(lp324
S'13\xc2\xa0oil'
p325
aI161
aa(lp326
S'princess'
p327
aI162
aa(lp328
S'occupying'
p329
aI163
aa(lp330
S'tyrannicides'
p331
aI164
aa(lp332
S'program'
p333
aI165
aa(lp334
S'music'
p335
aI166
aa(lp336
S'therefore'
p337
aI167
aa(lp338
S'denmark'
p339
aI168
aa(lp340
S'strike'
p341
aI169
aa(lp342
S'dairy'
p343
aI170
aa(lp344
S'arme'
p345
aI171
aa(lp346
S'until'
p347
aI172
aa(lp348
S'thyratrons'
p349
aI173
aa(lp350
S'supporters'
p351
aI174
aa(lp352
S'infrastructure'
p353
aI175
aa(lp354
S'successful'
p355
aI176
aa(lp356
S'oscar'
p357
aI177
aa(lp358
S'award'
p359
aI178
aa(lp360
S'98'
p361
aI179
aa(lp362
S'berlin'
p363
aI180
aa(lp364
S'uncertain'
p365
aI181
aa(lp366
S'adult'
p367
aI182
aa(lp368
S'excellent'
p369
aI183
aa(lp370
S'midst'
p371
aI184
aa(lp372
S'conflicts'
p373
aI185
aa(lp374
S'95'
p375
aI186
aa(lp376
S'circumstances'
p377
aI187
aa(lp378
S'1991'
p379
aI188
aa(lp380
S'ii'
p381
aI189
aa(lp382
S'imamate'
p383
aI190
aa(lp384
S'word'
p385
aI191
aa(lp386
S'1994'
p387
aI192
aa(lp388
S'1997'
p389
aI193
aa(lp390
S'rights'
p391
aI194
aa(lp392
S'stockford'
p393
aI195
aa(lp394
S'work'
p395
aI196
aa(lp396
S"howl's"
p397
aI197
aa(lp398
S'theories'
p399
aI198
aa(lp400
S'obstacle'
p401
aI199
aa(lp402
S'era'
p403
aI200
aa(lp404
S'transparency'
p405
aI201
aa(lp406
S'concepts'
p407
aI202
aa(lp408
S'ernest'
p409
aI203
aa(lp410
S'revenues'
p411
aI204
aa(lp412
S'my'
p413
aI205
aa(lp414
S'grenade'
p415
aI206
aa(lp416
S'fortress'
p417
aI207
aa(lp418
S'sectarianism'
p419
aI208
aa(lp420
S'abstentionism'
p421
aI209
aa(lp422
S'r\xc3\xadgmonaid'
p423
aI210
aa(lp424
S'indicated'
p425
aI211
aa(lp426
S'give'
p427
aI212
aa(lp428
S'bisexuality'
p429
aI213
aa(lp430
S'cited'
p431
aI214
aa(lp432
S'organized'
p433
aI215
aa(lp434
S'currency'
p435
aI216
aa(lp436
S'hyphenated'
p437
aI217
aa(lp438
S'collaborate'
p439
aI218
aa(lp440
S'avoid'
p441
aI219
aa(lp442
S'times'
p443
aI220
aa(lp444
S'autonomy'
p445
aI221
aa(lp446
S'seattle'
p447
aI222
aa(lp448
S'end'
p449
aI223
aa(lp450
S'hoc'
p451
aI224
aa(lp452
S'provide'
p453
aI225
aa(lp454
S'feature'
p455
aI226
aa(lp456
S'machine'
p457
aI227
aa(lp458
S'far'
p459
aI228
aa(lp460
S'globalization'
p461
aI229
aa(lp462
S'front'
p463
aI230
aa(lp464
S'\xe2\x80\x98deposits'
p465
aI231
aa(lp466
S'gate'
p467
aI232
aa(lp468
S'widespread'
p469
aI233
aa(lp470
S'classify'
p471
aI234
aa(lp472
S'releases'
p473
aI235
aa(lp474
S'rise'
p475
aI236
aa(lp476
S'description'
p477
aI237
aa(lp478
S'transforming'
p479
aI238
aa(lp480
S'turing'
p481
aI239
aa(lp482
S'after'
p483
aI240
aa(lp484
S'collectivists'
p485
aI241
aa(lp486
S'damaged'
p487
aI242
aa(lp488
S'ova'
p489
aI243
aa(lp490
S'magistracy'
p491
aI244
aa(lp492
S'involvement'
p493
aI245
aa(lp494
S'president'
p495
aI246
aa(lp496
S'law'
p497
aI247
aa(lp498
S'brigand'
p499
aI248
aa(lp500
S'parallel'
p501
aI249
aa(lp502
S'types'
p503
aI250
aa(lp504
S'stronghold'
p505
aI251
aa(lp506
S'purchase'
p507
aI252
aa(lp508
S'ginsberg'
p509
aI253
aa(lp510
S'attempt'
p511
aI254
aa(lp512
S'effective'
p513
aI255
aa(lp514
S'rudolf'
p515
aI256
aa(lp516
S'would-be'
p517
aI257
aa(lp518
S'revolt'
p519
aI258
aa(lp520
S'headquarters'
p521
aI259
aa(lp522
S'fictional'
p523
aI260
aa(lp524
S'capitalism'
p525
aI261
aa(lp526
S'greek'
p527
aI262
aa(lp528
S'complexity'
p529
aI263
aa(lp530
S'shimokawa'
p531
aI264
aa(lp532
S'green'
p533
aI265
aa(lp534
S'ultimate'
p535
aI266
aa(lp536
S'capitalist'
p537
aI267
aa(lp538
S'preventive'
p539
aI268
aa(lp540
S'operate'
p541
aI269
aa(lp542
S'order'
p543
aI270
aa(lp544
S'wine'
p545
aI271
aa(lp546
S'archos'
p547
aI272
aa(lp548
S'foresaw'
p549
aI273
aa(lp550
S'executed'
p551
aI274
aa(lp552
S'afterwards'
p553
aI275
aa(lp554
S'over'
p555
aI276
aa(lp556
S'vary'
p557
aI277
aa(lp558
S'stoicism'
p559
aI278
aa(lp560
S'murray'
p561
aI279
aa(lp562
S'london'
p563
aI280
aa(lp564
S'affect'
p565
aI281
aa(lp566
S'japan'
p567
aI282
aa(lp568
S"france's"
p569
aI283
aa(lp570
S'partisans'
p571
aI284
aa(lp572
S'before'
p573
aI285
aa(lp574
S'position'
p575
aI286
aa(lp576
S'personal'
p577
aI287
aa(lp578
S'del'
p579
aI288
aa(lp580
S'alternating'
p581
aI289
aa(lp582
S'writing'
p583
aI290
aa(lp584
S'destroyed'
p585
aI291
aa(lp586
S'production'
p587
aI292
aa(lp588
S'vast'
p589
aI293
aa(lp590
S'victorious'
p591
aI294
aa(lp592
S'then'
p593
aI295
aa(lp594
S'them'
p595
aI296
aa(lp596
S'belarus'
p597
aI297
aa(lp598
S'iowa'
p599
aI298
aa(lp600
S'tourist'
p601
aI299
aa(lp602
S'unionism'
p603
aI300
aa(lp604
S'break'
p605
aI301
aa(lp606
S'jacobin'
p607
aI302
aa(lp608
S'publicizing'
p609
aI303
aa(lp610
S'they'
p611
aI304
aa(lp612
S'unionist'
p613
aI305
aa(lp614
S'schools'
p615
aI306
aa(lp616
S"atanasoff's"
p617
aI307
aa(lp618
S'\xe3\x82\xa2\xe3\x83\x8b\xe3\x83\xa1'
p619
aI308
aa(lp620
S'strategic'
p621
aI309
aa(lp622
S'tourism'
p623
aI310
aa(lp624
S'silver'
p625
aI311
aa(lp626
S'bank'
p627
aI312
aa(lp628
S'$15.7'
p629
aI313
aa(lp630
S'aired'
p631
aI314
aa(lp632
S'suicide'
p633
aI315
aa(lp634
S'eight-hour'
p635
aI316
aa(lp636
S'mustafayev'
p637
aI317
aa(lp638
S'alex'
p639
aI318
aa(lp640
S'bo\xc3\xa9tie'
p641
aI319
aa(lp642
S'1897\xe2\x80\x931904'
p643
aI320
aa(lp644
S'collectivised'
p645
aI321
aa(lp646
S'bolten'
p647
aI322
aa(lp648
S'classified'
p649
aI323
aa(lp650
S'backgrounds'
p651
aI324
aa(lp652
S'l'
p653
aI325
aa(lp654
S'asia'
p655
aI326
aa(lp656
S'victory'
p657
aI327
aa(lp658
S'each'
p659
aI328
aa(lp660
S'haruhi'
p661
aI329
aa(lp662
S'uninfluenced'
p663
aI330
aa(lp664
S'european'
p665
aI331
aa(lp666
S'mean'
p667
aI332
aa(lp668
S'definitional'
p669
aI333
aa(lp670
S'preceded'
p671
aI334
aa(lp672
S'schemes'
p673
aI335
aa(lp674
S'financial'
p675
aI336
aa(lp676
S'periodical'
p677
aI337
aa(lp678
S'enthusiasts'
p679
aI338
aa(lp680
S'hirschfeld'
p681
aI339
aa(lp682
S'councils'
p683
aI340
aa(lp684
S'series'
p685
aI341
aa(lp686
S'frequency'
p687
aI342
aa(lp688
S'principles'
p689
aI343
aa(lp690
S'taught'
p691
aI344
aa(lp692
S'1539."anarchist'
p693
aI345
aa(lp694
S'combining'
p695
aI346
aa(lp696
S'laboratory'
p697
aI347
aa(lp698
S'toleration'
p699
aI348
aa(lp700
S'by'
p701
aI349
aa(lp702
S'network'
p703
aI350
aa(lp704
S'samurai'
p705
aI351
aa(lp706
S'god'
p707
aI352
aa(lp708
S'tales'
p709
aI353
aa(lp710
S'pierre-joseph'
p711
aI354
aa(lp712
S'archon'
p713
aI355
aa(lp714
S'collaborated'
p715
aI356
aa(lp716
S'surprise'
p717
aI357
aa(lp718
S'transfer'
p719
aI358
aa(lp720
S'size'
p721
aI359
aa(lp722
S'forth'
p723
aI360
aa(lp724
S'resistor'
p725
aI361
aa(lp726
S'independence'
p727
aI362
aa(lp728
S'housing'
p729
aI363
aa(lp730
S'disputed'
p731
aI364
aa(lp732
S'linear'
p733
aI365
aa(lp734
S'rely'
p735
aI366
aa(lp736
S'city'
p737
aI367
aa(lp738
S'given'
p739
aI368
aa(lp740
S'free'
p741
aI369
aa(lp742
S'commercially'
p743
aI370
aa(lp744
S'disputes'
p745
aI371
aa(lp746
S'formation'
p747
aI372
aa(lp748
S'struggle'
p749
aI373
aa(lp750
S'socio-economic'
p751
aI374
aa(lp752
S'forcibly'
p753
aI375
aa(lp754
S'manhour'
p755
aI376
aa(lp756
S'enlightened'
p757
aI377
aa(lp758
S'bigger'
p759
aI378
aa(lp760
S'unauthorized'
p761
aI379
aa(lp762
S'personalities'
p763
aI380
aa(lp764
S'lothian'
p765
aI381
aa(lp766
S'created'
p767
aI382
aa(lp768
S'argument'
p769
aI383
aa(lp770
S'typified'
p771
aI384
aa(lp772
S'anselme'
p773
aI385
aa(lp774
S'polyamory'
p775
aI386
aa(lp776
S'presumptive'
p777
aI387
aa(lp778
S'oppose'
p779
aI388
aa(lp780
S'canterbury'
p781
aI389
aa(lp782
S'1970s'
p783
aI390
aa(lp784
S'kingdom'
p785
aI391
aa(lp786
S'uses'
p787
aI392
aa(lp788
S'diggers'
p789
aI393
aa(lp790
S'cooperating'
p791
aI394
aa(lp792
S'purpose'
p793
aI395
aa(lp794
S'rand'
p795
aI396
aa(lp796
S'already'
p797
aI397
aa(lp798
S'features'
p799
aI398
aa(lp800
S'\xe1\xbc\x80\xce\xbd-'
p801
aI399
aa(lp802
S'17%'
p803
aI400
aa(lp804
S'coding'
p805
aI401
aa(lp806
S'primary'
p807
aI402
aa(lp808
S'biennio'
p809
aI403
aa(lp810
S'fantasy'
p811
aI404
aa(lp812
S'philosophical'
p813
aI405
aa(lp814
S'relations'
p815
aI406
aa(lp816
S'heywood'
p817
aI407
aa(lp818
S'pioneers'
p819
aI408
aa(lp820
S'177'
p821
aI409
aa(lp822
S'latinised'
p823
aI410
aa(lp824
S'comic'
p825
aI411
aa(lp826
S'electronic'
p827
aI412
aa(lp828
S'resisted'
p829
aI413
aa(lp830
S'pragmatic'
p831
aI414
aa(lp832
S'insisted'
p833
aI415
aa(lp834
S'1939\xe2\x80\x9342'
p835
aI416
aa(lp836
S'revival'
p837
aI417
aa(lp838
S'similarly'
p839
aI418
aa(lp840
S'top'
p841
aI419
aa(lp842
S'historian'
p843
aI420
aa(lp844
S'1500'
p845
aI421
aa(lp846
S'approximately'
p847
aI422
aa(lp848
S'heights'
p849
aI423
aa(lp850
S'needed'
p851
aI424
aa(lp852
S'theatrically'
p853
aI425
aa(lp854
S'rates'
p855
aI426
aa(lp856
S'too'
p857
aI427
aa(lp858
S'decentralised'
p859
aI428
aa(lp860
S'deschooling'
p861
aI429
aa(lp862
S'john'
p863
aI430
aa(lp864
S'bitter'
p865
aI431
aa(lp866
S'gained'
p867
aI432
aa(lp868
S'discussion'
p869
aI433
aa(lp870
S'murder'
p871
aI434
aa(lp872
S'collapse'
p873
aI435
aa(lp874
S'rest'
p875
aI436
aa(lp876
S'pro-labor'
p877
aI437
aa(lp878
S'light-bearer'
p879
aI438
aa(lp880
S'diversified'
p881
aI439
aa(lp882
S'albert'
p883
aI440
aa(lp884
S'took'
p885
aI441
aa(lp886
S'satisfaction'
p887
aI442
aa(lp888
S'japanese'
p889
aI443
aa(lp890
S'tokens'
p891
aI444
aa(lp892
S'technique'
p893
aI445
aa(lp894
S'czolgosz'
p895
aI446
aa(lp896
S'western'
p897
aI447
aa(lp898
S'somewhat'
p899
aI448
aa(lp900
S'evil'
p901
aI449
aa(lp902
S'abandoning'
p903
aI450
aa(lp904
S'maintaining'
p905
aI451
aa(lp906
S'positively'
p907
aI452
aa(lp908
S'distance'
p909
aI453
aa(lp910
S'target'
p911
aI454
aa(lp912
S'roles'
p913
aI455
aa(lp914
S'participated'
p915
aI456
aa(lp916
S'fairytale'
p917
aI457
aa(lp918
S'country\xe2\x80\x99s'
p919
aI458
aa(lp920
S'second'
p921
aI459
aa(lp922
S'mlrs'
p923
aI460
aa(lp924
S'project'
p925
aI461
aa(lp926
S'matter'
p927
aI462
aa(lp928
S'iron'
p929
aI463
aa(lp930
S'espouse'
p931
aI464
aa(lp932
S'two-minute'
p933
aI465
aa(lp934
S'anti-organisationalist'
p935
aI466
aa(lp936
S'contrasted'
p937
aI467
aa(lp938
S'derived'
p939
aI468
aa(lp940
S'baki-kastel'
p941
aI469
aa(lp942
S'godwin'
p943
aI470
aa(lp944
S'sees'
p945
aI471
aa(lp946
S'ran'
p947
aI472
aa(lp948
S'disseminated'
p949
aI473
aa(lp950
S'modern'
p951
aI474
aa(lp952
S'mind'
p953
aI475
aa(lp954
S'mining'
p955
aI476
aa(lp956
S'500,000'
p957
aI477
aa(lp958
S'raw'
p959
aI478
aa(lp960
S'seen'
p961
aI479
aa(lp962
S'hentai'
p963
aI480
aa(lp964
S'seek'
p965
aI481
aa(lp966
S'inefficient'
p967
aI482
aa(lp968
S'forced'
p969
aI483
aa(lp970
S'estimated'
p971
aI484
aa(lp972
S'realm'
p973
aI485
aa(lp974
S'hub'
p975
aI486
aa(lp976
S'broadly'
p977
aI487
aa(lp978
S'\xc5\x8cfuji'
p979
aI488
aa(lp980
S'latter'
p981
aI489
aa(lp982
S'responsible'
p983
aI490
aa(lp984
S'1960'
p985
aI491
aa(lp986
S'self-defense'
p987
aI492
aa(lp988
S'fabbri'
p989
aI493
aa(lp990
S'situated'
p991
aI494
aa(lp992
S'sound'
p993
aI495
aa(lp994
S'subjects'
p995
aI496
aa(lp996
S'vice-versa'
p997
aI497
aa(lp998
S'forces'
p999
aI498
aa(lp1000
S'educator'
p1001
aI499
aa(lp1002
S'bourgeois'
p1003
aI500
aa(lp1004
S'conducive'
p1005
aI501
aa(lp1006
S'culminated'
p1007
aI502
aa(lp1008
S'committing'
p1009
aI503
aa(lp1010
S'reverberates'
p1011
aI504
aa(lp1012
S'though'
p1013
aI505
aa(lp1014
S'cassettes'
p1015
aI506
aa(lp1016
S'exercised'
p1017
aI507
aa(lp1018
S'translator'
p1019
aI508
aa(lp1020
S'y'
p1021
aI509
aa(lp1022
S'defence'
p1023
aI510
aa(lp1024
S'germany'
p1025
aI511
aa(lp1026
S'ensure'
p1027
aI512
aa(lp1028
S'organization'
p1029
aI513
aa(lp1030
S'retaining'
p1031
aI514
aa(lp1032
S'contain'
p1033
aI515
aa(lp1034
S'manifested'
p1035
aI516
aa(lp1036
S'animators'
p1037
aI517
aa(lp1038
S'stylized'
p1039
aI518
aa(lp1040
S"individual's"
p1041
aI519
aa(lp1042
S'episode'
p1043
aI520
aa(lp1044
S'gsm'
p1045
aI521
aa(lp1046
S'professor'
p1047
aI522
aa(lp1048
S'camp'
p1049
aI523
aa(lp1050
S'm'
p1051
aI524
aa(lp1052
S'z3'
p1053
aI525
aa(lp1054
S'musical'
p1055
aI526
aa(lp1056
S'accounted'
p1057
aI527
aa(lp1058
S'principle'
p1059
aI528
aa(lp1060
S'individualist-anarchism'
p1061
aI529
aa(lp1062
S'lpf'
p1063
aI530
aa(lp1064
S'nineteenth'
p1065
aI531
aa(lp1066
S'1936\xe2\x80\x931939'
p1067
aI532
aa(lp1068
S'consumer'
p1069
aI533
aa(lp1070
S'responded'
p1071
aI534
aa(lp1072
S'confederation'
p1073
aI535
aa(lp1074
S'fotlu'
p1075
aI536
aa(lp1076
S'incorporate'
p1077
aI537
aa(lp1078
S'play'
p1079
aI538
aa(lp1080
S'bomb'
p1081
aI539
aa(lp1082
S'punk'
p1083
aI540
aa(lp1084
S'pope'
p1085
aI541
aa(lp1086
S'macbeth'
p1087
aI542
aa(lp1088
S'meetings'
p1089
aI543
aa(lp1090
S'alaxandair'
p1091
aI544
aa(lp1092
S'nominated'
p1093
aI545
aa(lp1094
S'profitability'
p1095
aI546
aa(lp1096
S'colors'
p1097
aI547
aa(lp1098
S'sc\xc3\xa9l\xc3\xa9rates'
p1099
aI548
aa(lp1100
S'gauge'
p1101
aI549
aa(lp1102
S'us$1'
p1103
aI550
aa(lp1104
S'range'
p1105
aI551
aa(lp1106
S'thirds'
p1107
aI552
aa(lp1108
S'availability'
p1109
aI553
aa(lp1110
S'larson'
p1111
aI554
aa(lp1112
S'faure'
p1113
aI555
aa(lp1114
S'flowers'
p1115
aI556
aa(lp1116
S'proposed'
p1117
aI557
aa(lp1118
S'peasants'
p1119
aI558
aa(lp1120
S'implementation'
p1121
aI559
aa(lp1122
S'illegalism'
p1123
aI560
aa(lp1124
S'explain'
p1125
aI561
aa(lp1126
S'layman'
p1127
aI562
aa(lp1128
S'minnesota'
p1129
aI563
aa(lp1130
S'institution'
p1131
aI564
aa(lp1132
S'here'
p1133
aI565
aa(lp1134
S'rich'
p1135
aI566
aa(lp1136
S'constant'
p1137
aI567
aa(lp1138
S"graham's"
p1139
aI568
aa(lp1140
S'radically'
p1141
aI569
aa(lp1142
S'do'
p1143
aI570
aa(lp1144
S'mixture'
p1145
aI571
aa(lp1146
S'cubic'
p1147
aI572
aa(lp1148
S'protracted'
p1149
aI573
aa(lp1150
S'remarry'
p1151
aI574
aa(lp1152
S'de'
p1153
aI575
aa(lp1154
S'stop'
p1155
aI576
aa(lp1156
S'denounce'
p1157
aI577
aa(lp1158
S'shahdag'
p1159
aI578
aa(lp1160
S'despite'
p1161
aI579
aa(lp1162
S'report'
p1163
aI580
aa(lp1164
S'15'
p1165
aI581
aa(lp1166
S'coating'
p1167
aI582
aa(lp1168
S'du'
p1169
aI583
aa(lp1170
S'14'
p1171
aI584
aa(lp1172
S'earl'
p1173
aI585
aa(lp1174
S'profoundly'
p1175
aI586
aa(lp1176
S'syncretic'
p1177
aI587
aa(lp1178
S'chronological'
p1179
aI588
aa(lp1180
S'countries'
p1181
aI589
aa(lp1182
S'exchanged'
p1183
aI590
aa(lp1184
S'post-left'
p1185
aI591
aa(lp1186
S'humanism'
p1187
aI592
aa(lp1188
S'egoism'
p1189
aI593
aa(lp1190
S'public'
p1191
aI594
aa(lp1192
S'illegitimate'
p1193
aI595
aa(lp1194
S"children's"
p1195
aI596
aa(lp1196
S'bad'
p1197
aI597
aa(lp1198
S'openly'
p1199
aI598
aa(lp1200
S'architecture'
p1201
aI599
aa(lp1202
S'shots'
p1203
aI600
aa(lp1204
S'egoist'
p1205
aI601
aa(lp1206
S'ban'
p1207
aI602
aa(lp1208
S'bao'
p1209
aI603
aa(lp1210
S'cumbrians'
p1211
aI604
aa(lp1212
S'1914\xe2\x80\x931918'
p1213
aI605
aa(lp1214
S'blackwell'
p1215
aI606
aa(lp1216
S'ethical'
p1217
aI607
aa(lp1218
S'questions'
p1219
aI608
aa(lp1220
S'edited'
p1221
aI609
aa(lp1222
S'emergent'
p1223
aI610
aa(lp1224
S'1960s'
p1225
aI611
aa(lp1226
S'sturgeon'
p1227
aI612
aa(lp1228
S'observed'
p1229
aI613
aa(lp1230
S'decided'
p1231
aI614
aa(lp1232
S'result'
p1233
aI615
aa(lp1234
S'iran'
p1235
aI616
aa(lp1236
S'tortured'
p1237
aI617
aa(lp1238
S'taiwan'
p1239
aI618
aa(lp1240
S'best'
p1241
aI619
aa(lp1242
S'techniques'
p1243
aI620
aa(lp1244
S'brazil'
p1245
aI621
aa(lp1246
S'outbreak'
p1247
aI622
aa(lp1248
S'namakura'
p1249
aI623
aa(lp1250
S'antimony'
p1251
aI624
aa(lp1252
S'capacity'
p1253
aI625
aa(lp1254
S'campaigners'
p1255
aI626
aa(lp1256
S'away'
p1257
aI627
aa(lp1258
S'cnt-ait'
p1259
aI628
aa(lp1260
S'interpreted'
p1261
aI629
aa(lp1262
S'compensation'
p1263
aI630
aa(lp1264
S'yet'
p1265
aI631
aa(lp1266
S'r'
p1267
aI632
aa(lp1268
S'transcendentalist'
p1269
aI633
aa(lp1270
S'batchelder'
p1271
aI634
aa(lp1272
S'conceptual'
p1273
aI635
aa(lp1274
S'drawn'
p1275
aI636
aa(lp1276
S'sorts'
p1277
aI637
aa(lp1278
S'eupec'
p1279
aI638
aa(lp1280
S'approach'
p1281
aI639
aa(lp1282
S'$60'
p1283
aI640
aa(lp1284
S'profitable'
p1285
aI641
aa(lp1286
S'accord'
p1287
aI642
aa(lp1288
S'eunice'
p1289
aI643
aa(lp1290
S'terms'
p1291
aI644
aa(lp1292
S'wb'
p1293
aI645
aa(lp1294
S'nature'
p1295
aI646
aa(lp1296
S'$5,000'
p1297
aI647
aa(lp1298
S'however'
p1299
aI648
aa(lp1300
S'$174'
p1301
aI649
aa(lp1302
S'add'
p1303
aI650
aa(lp1304
S'ram\xc3\xb3n'
p1305
aI651
aa(lp1306
S'censorship'
p1307
aI652
aa(lp1308
S'defiance'
p1309
aI653
aa(lp1310
S'wto'
p1311
aI654
aa(lp1312
S'sperry'
p1313
aI655
aa(lp1314
S'essentially'
p1315
aI656
aa(lp1316
S'federalist'
p1317
aI657
aa(lp1318
S'brown'
p1319
aI658
aa(lp1320
S'lgbt'
p1321
aI659
aa(lp1322
S'country'
p1323
aI660
aa(lp1324
S'ill'
p1325
aI661
aa(lp1326
S'museum'
p1327
aI662
aa(lp1328
S'edgar'
p1329
aI663
aa(lp1330
S'flores'
p1331
aI664
aa(lp1332
S'anarcho-pacifists'
p1333
aI665
aa(lp1334
S'une'
p1335
aI666
aa(lp1336
S'normandy'
p1337
aI667
aa(lp1338
S'logic'
p1339
aI668
aa(lp1340
S'studio'
p1341
aI669
aa(lp1342
S'argue'
p1343
aI670
aa(lp1344
S'adapted'
p1345
aI671
aa(lp1346
S'capacitor'
p1347
aI672
aa(lp1348
S'presumably'
p1349
aI673
aa(lp1350
S'exemplary'
p1351
aI674
aa(lp1352
S"council's"
p1353
aI675
aa(lp1354
S'appeared'
p1355
aI676
aa(lp1356
S'character'
p1357
aI677
aa(lp1358
S'height'
p1359
aI678
aa(lp1360
S'represented'
p1361
aI679
aa(lp1362
S'tons'
p1363
aI680
aa(lp1364
S'cryptography'
p1365
aI681
aa(lp1366
S'toei'
p1367
aI682
aa(lp1368
S'wider'
p1369
aI683
aa(lp1370
S'levante'
p1371
aI684
aa(lp1372
S'organisational'
p1373
aI685
aa(lp1374
S'solaire'
p1375
aI686
aa(lp1376
S'hitler'
p1377
aI687
aa(lp1378
S'speak'
p1379
aI688
aa(lp1380
S'conference'
p1381
aI689
aa(lp1382
S'petty'
p1383
aI690
aa(lp1384
S'targeting'
p1385
aI691
aa(lp1386
S'zisly'
p1387
aI692
aa(lp1388
S'basis'
p1389
aI693
aa(lp1390
S'union'
p1391
aI694
aa(lp1392
S'1.3%'
p1393
aI695
aa(lp1394
S'three'
p1395
aI696
aa(lp1396
S'been'
p1397
aI697
aa(lp1398
S'quickly'
p1399
aI698
aa(lp1400
S'clifford'
p1401
aI699
aa(lp1402
S'gruffudd'
p1403
aI700
aa(lp1404
S'beer'
p1405
aI701
aa(lp1406
S'much'
p1407
aI702
aa(lp1408
S'3.8%'
p1409
aI703
aa(lp1410
S'julian'
p1411
aI704
aa(lp1412
S'expected'
p1413
aI705
aa(lp1414
S'transformed'
p1415
aI706
aa(lp1416
S'entered'
p1417
aI707
aa(lp1418
S'$5.76'
p1419
aI708
aa(lp1420
S'kenmore'
p1421
aI709
aa(lp1422
S'questioned'
p1423
aI710
aa(lp1424
S'cutouts'
p1425
aI711
aa(lp1426
S'life'
p1427
aI712
aa(lp1428
S'saornil'
p1429
aI713
aa(lp1430
S'retrospect'
p1431
aI714
aa(lp1432
S'attacked'
p1433
aI715
aa(lp1434
S'concerning'
p1435
aI716
aa(lp1436
S'worker'
p1437
aI717
aa(lp1438
S'madhouse'
p1439
aI718
aa(lp1440
S'enterprises'
p1441
aI719
aa(lp1442
S'craft'
p1443
aI720
aa(lp1444
S'chile'
p1445
aI721
aa(lp1446
S'child'
p1447
aI722
aa(lp1448
S'unrecorded'
p1449
aI723
aa(lp1450
S'worked'
p1451
aI724
aa(lp1452
S'voices'
p1453
aI725
aa(lp1454
S'individualists'
p1455
aI726
aa(lp1456
S'encyclopaedia'
p1457
aI727
aa(lp1458
S'applied'
p1459
aI728
aa(lp1460
S'unpopular'
p1461
aI729
aa(lp1462
S"thurgot's"
p1463
aI730
aa(lp1464
S'libres'
p1465
aI731
aa(lp1466
S'participatory'
p1467
aI732
aa(lp1468
S'adaptations'
p1469
aI733
aa(lp1470
S'publicly'
p1471
aI734
aa(lp1472
S'affirm'
p1473
aI735
aa(lp1474
S'1849\xe2\x80\x931898'
p1475
aI736
aa(lp1476
S'organisers'
p1477
aI737
aa(lp1478
S'economies'
p1479
aI738
aa(lp1480
S'act'
p1481
aI739
aa(lp1482
S'lesser'
p1483
aI740
aa(lp1484
S'near'
p1485
aI741
aa(lp1486
S'aid'
p1487
aI742
aa(lp1488
S'property'
p1489
aI743
aa(lp1490
S'unionists'
p1491
aI744
aa(lp1492
S'characterizing'
p1493
aI745
aa(lp1494
S'buried'
p1495
aI746
aa(lp1496
S'seven'
p1497
aI747
aa(lp1498
S'economics'
p1499
aI748
aa(lp1500
S'played'
p1501
aI749
aa(lp1502
S'collectivization'
p1503
aI750
aa(lp1504
S'is'
p1505
aI751
aa(lp1506
S'it'
p1507
aI752
aa(lp1508
S'defeated'
p1509
aI753
aa(lp1510
S'kohr'
p1511
aI754
aa(lp1512
S'1937\xe2\x80\x9338'
p1513
aI755
aa(lp1514
S'experience'
p1515
aI756
aa(lp1516
S'320\xc2\xa0kg'
p1517
aI757
aa(lp1518
S'in'
p1519
aI758
aa(lp1520
S'comparative'
p1521
aI759
aa(lp1522
S'\xc3\xa9rotique'
p1523
aI760
aa(lp1524
S'tremendously'
p1525
aI761
aa(lp1526
S'if'
p1527
aI762
aa(lp1528
S'containing'
p1529
aI763
aa(lp1530
S'yasuji'
p1531
aI764
aa(lp1532
S'prior'
p1533
aI765
aa(lp1534
S'patent'
p1535
aI766
aa(lp1536
S'suggest'
p1537
aI767
aa(lp1538
S'make'
p1539
aI768
aa(lp1540
S'adjectives'
p1541
aI769
aa(lp1542
S'rebellion'
p1543
aI770
aa(lp1544
S'pierrot'
p1545
aI771
aa(lp1546
S'utilitarian'
p1547
aI772
aa(lp1548
S'complex'
p1549
aI773
aa(lp1550
S'self-ownership'
p1551
aI774
aa(lp1552
S'split'
p1553
aI775
aa(lp1554
S'unfortunate'
p1555
aI776
aa(lp1556
S'azerbaijani'
p1557
aI777
aa(lp1558
S'exxonmobil'
p1559
aI778
aa(lp1560
S'colonies'
p1561
aI779
aa(lp1562
S'several'
p1563
aI780
aa(lp1564
S'edvac'
p1565
aI781
aa(lp1566
S'yaoi'
p1567
aI782
aa(lp1568
S'inventors'
p1569
aI783
aa(lp1570
S'independent'
p1571
aI784
aa(lp1572
S'leftist'
p1573
aI785
aa(lp1574
S'condemnation'
p1575
aI786
aa(lp1576
S'styling'
p1577
aI787
aa(lp1578
S'mujeres'
p1579
aI788
aa(lp1580
S'published'
p1581
aI789
aa(lp1582
S'differing'
p1583
aI790
aa(lp1584
S'counterparts'
p1585
aI791
aa(lp1586
S'hand'
p1587
aI792
aa(lp1588
S'renaissance'
p1589
aI793
aa(lp1590
S'aspray'
p1591
aI794
aa(lp1592
S'characters'
p1593
aI795
aa(lp1594
S'animations'
p1595
aI796
aa(lp1596
S'groundbreaking'
p1597
aI797
aa(lp1598
S'palpable'
p1599
aI798
aa(lp1600
S'wives'
p1601
aI799
aa(lp1602
S'adopting'
p1603
aI800
aa(lp1604
S'thoughts'
p1605
aI801
aa(lp1606
S'anarchists'
p1607
aI802
aa(lp1608
S'counter-economics'
p1609
aI803
aa(lp1610
S'whereby'
p1611
aI804
aa(lp1612
S'matters'
p1613
aI805
aa(lp1614
S'1600'
p1615
aI806
aa(lp1616
S'1973'
p1617
aI807
aa(lp1618
S'writer/reader'
p1619
aI808
aa(lp1620
S'33,3%'
p1621
aI809
aa(lp1622
S'materials'
p1623
aI810
aa(lp1624
S'mother'
p1625
aI811
aa(lp1626
S'claims'
p1627
aI812
aa(lp1628
S'the'
p1629
aI813
aa(lp1630
S'camps'
p1631
aI814
aa(lp1632
S'investments'
p1633
aI815
aa(lp1634
S'enrag\xc3\xa9s'
p1635
aI816
aa(lp1636
S'left'
p1637
aI817
aa(lp1638
S'leagues'
p1639
aI818
aa(lp1640
S'wilde'
p1641
aI819
aa(lp1642
S'traditions'
p1643
aI820
aa(lp1644
S'just'
p1645
aI821
aa(lp1646
S'golden'
p1647
aI822
aa(lp1648
S'distribute'
p1649
aI823
aa(lp1650
S'rotated'
p1651
aI824
aa(lp1652
S'effects'
p1653
aI825
aa(lp1654
S'consortium'
p1655
aI826
aa(lp1656
S'cumbria'
p1657
aI827
aa(lp1658
S"proudhon's"
p1659
aI828
aa(lp1660
S'identify'
p1661
aI829
aa(lp1662
S'mechanism'
p1663
aI830
aa(lp1664
S'human'
p1665
aI831
aa(lp1666
S'shading'
p1667
aI832
aa(lp1668
S'followed'
p1669
aI833
aa(lp1670
S'32'
p1671
aI834
aa(lp1672
S'portrayed'
p1673
aI835
aa(lp1674
S'adding'
p1675
aI836
aa(lp1676
S'campaign'
p1677
aI837
aa(lp1678
S'han'
p1679
aI838
aa(lp1680
S'regarded'
p1681
aI839
aa(lp1682
S'strains'
p1683
aI840
aa(lp1684
S'had'
p1685
aI841
aa(lp1686
S'ideal'
p1687
aI842
aa(lp1688
S'amoco'
p1689
aI843
aa(lp1690
S'macdonald'
p1691
aI844
aa(lp1692
S'comaposada'
p1693
aI845
aa(lp1694
S'spread'
p1695
aI846
aa(lp1696
S'affinity'
p1697
aI847
aa(lp1698
S"kouchi's"
p1699
aI848
aa(lp1700
S'minette'
p1701
aI849
aa(lp1702
S'has'
p1703
aI850
aa(lp1704
S'expelled'
p1705
aI851
aa(lp1706
S'gave'
p1707
aI852
aa(lp1708
S'gustav'
p1709
aI853
aa(lp1710
S'which'
p1711
aI854
aa(lp1712
S'involuntary'
p1713
aI855
aa(lp1714
S'bands'
p1715
aI856
aa(lp1716
S'disagreement'
p1717
aI857
aa(lp1718
S'possibly'
p1719
aI858
aa(lp1720
S'cultural'
p1721
aI859
aa(lp1722
S'nationalists'
p1723
aI860
aa(lp1724
S'birth'
p1725
aI861
aa(lp1726
S'destroy'
p1727
aI862
aa(lp1728
S'judge'
p1729
aI863
aa(lp1730
S'unique'
p1731
aI864
aa(lp1732
S'desire'
p1733
aI865
aa(lp1734
S'al-basri'
p1735
aI866
aa(lp1736
S'visible'
p1737
aI867
aa(lp1738
S'54'
p1739
aI868
aa(lp1740
S'manual'
p1741
aI869
aa(lp1742
S'50'
p1743
aI870
aa(lp1744
S'specific'
p1745
aI871
aa(lp1746
S'steps'
p1747
aI872
aa(lp1748
S'officer'
p1749
aI873
aa(lp1750
S'night'
p1751
aI874
aa(lp1752
S'anime-influenced'
p1753
aI875
aa(lp1754
S'dolgoff'
p1755
aI876
aa(lp1756
S'security'
p1757
aI877
aa(lp1758
S'towards'
p1759
aI878
aa(lp1760
S'arditi'
p1761
aI879
aa(lp1762
S'beneficial'
p1763
aI880
aa(lp1764
S'right'
p1765
aI881
aa(lp1766
S'old'
p1767
aI882
aa(lp1768
S'crowd'
p1769
aI883
aa(lp1770
S'people'
p1771
aI884
aa(lp1772
S'subgenre'
p1773
aI885
aa(lp1774
S'successfully'
p1775
aI886
aa(lp1776
S'crown'
p1777
aI887
aa(lp1778
S'unnecessary'
p1779
aI888
aa(lp1780
S'clubs'
p1781
aI889
aa(lp1782
S'productions'
p1783
aI890
aa(lp1784
S'meters'
p1785
aI891
aa(lp1786
S'election'
p1787
aI892
aa(lp1788
S'insistence'
p1789
aI893
aa(lp1790
S'critique'
p1791
aI894
aa(lp1792
S'harassment'
p1793
aI895
aa(lp1794
S'repelling'
p1795
aI896
aa(lp1796
S'enemies'
p1797
aI897
aa(lp1798
S'reprogrammable'
p1799
aI898
aa(lp1800
S'theatrical'
p1801
aI899
aa(lp1802
S'cnt'
p1803
aI900
aa(lp1804
S'cynics'
p1805
aI901
aa(lp1806
S'humor'
p1807
aI902
aa(lp1808
S'stylization'
p1809
aI903
aa(lp1810
S'for'
p1811
aI904
aa(lp1812
S'establish'
p1813
aI905
aa(lp1814
S'/'
p1815
aI906
aa(lp1816
S'american-made'
p1817
aI907
aa(lp1818
S'repression'
p1819
aI908
aa(lp1820
S'continue'
p1821
aI909
aa(lp1822
S'embodies'
p1823
aI910
aa(lp1824
S'denied'
p1825
aI911
aa(lp1826
S'anarcho-pacifism'
p1827
aI912
aa(lp1828
S'participation'
p1829
aI913
aa(lp1830
S"laments:it's"
p1831
aI914
aa(lp1832
S'rationalist'
p1833
aI915
aa(lp1834
S'done,<br>dividing'
p1835
aI916
aa(lp1836
S'protagonism'
p1837
aI917
aa(lp1838
S'pose'
p1839
aI918
aa(lp1840
S'discount'
p1841
aI919
aa(lp1842
S'restructuring'
p1843
aI920
aa(lp1844
S'losing'
p1845
aI921
aa(lp1846
S'cynan'
p1847
aI922
aa(lp1848
S'manufacturing'
p1849
aI923
aa(lp1850
S'super'
p1851
aI924
aa(lp1852
S'shaken'
p1853
aI925
aa(lp1854
S'limitation'
p1855
aI926
aa(lp1856
S'attacks'
p1857
aI927
aa(lp1858
S'months'
p1859
aI928
aa(lp1860
S'costs'
p1861
aI929
aa(lp1862
S'distinct'
p1863
aI930
aa(lp1864
S'plus'
p1865
aI931
aa(lp1866
S'anime'
p1867
aI932
aa(lp1868
S'done'
p1869
aI933
aa(lp1870
S'steadily'
p1871
aI934
aa(lp1872
S'efforts'
p1873
aI935
aa(lp1874
S'mediums'
p1875
aI936
aa(lp1876
S'book'
p1877
aI937
aa(lp1878
S'automatically'
p1879
aI938
aa(lp1880
S'jacques'
p1881
aI939
aa(lp1882
S'destination'
p1883
aI940
aa(lp1884
S'azercell'
p1885
aI941
aa(lp1886
S'civil'
p1887
aI942
aa(lp1888
S'float'
p1889
aI943
aa(lp1890
S'macro-economic'
p1891
aI944
aa(lp1892
S'intellectual'
p1893
aI945
aa(lp1894
S"world's"
p1895
aI946
aa(lp1896
S'ussr'
p1897
aI947
aa(lp1898
S'doctrine'
p1899
aI948
aa(lp1900
S'1840'
p1901
aI949
aa(lp1902
S'1990s'
p1903
aI950
aa(lp1904
S'reducing'
p1905
aI951
aa(lp1906
S'methods'
p1907
aI952
aa(lp1908
S'communists'
p1909
aI953
aa(lp1910
S'existed'
p1911
aI954
aa(lp1912
S'mutual'
p1913
aI955
aa(lp1914
S'amidst'
p1915
aI956
aa(lp1916
S'free-market'
p1917
aI957
aa(lp1918
S'mitsuyo'
p1919
aI958
aa(lp1920
S'support'
p1921
aI959
aa(lp1922
S'initial'
p1923
aI960
aa(lp1924
S'nova'
p1925
aI961
aa(lp1926
S'fight'
p1927
aI962
aa(lp1928
S'quote'
p1929
aI963
aa(lp1930
S'joseph'
p1931
aI964
aa(lp1932
S"workingmen's"
p1933
aI965
aa(lp1934
S'way'
p1935
aI966
aa(lp1936
S'resulted'
p1937
aI967
aa(lp1938
S'call'
p1939
aI968
aa(lp1940
S'factions'
p1941
aI969
aa(lp1942
S'was'
p1943
aI970
aa(lp1944
S'war'
p1945
aI971
aa(lp1946
S'synthesis'
p1947
aI972
aa(lp1948
S'lowest'
p1949
aI973
aa(lp1950
S'head'
p1951
aI974
aa(lp1952
S'medium'
p1953
aI975
aa(lp1954
S'form'
p1955
aI976
aa(lp1956
S'offer'
p1957
aI977
aa(lp1958
S'attempted'
p1959
aI978
aa(lp1960
S'becoming'
p1961
aI979
aa(lp1962
S'pierre'
p1963
aI980
aa(lp1964
S'1,485,000'
p1965
aI981
aa(lp1966
S'purchasing'
p1967
aI982
aa(lp1968
S'incorporation'
p1969
aI983
aa(lp1970
S'alliance'
p1971
aI984
aa(lp1972
S'sustained'
p1973
aI985
aa(lp1974
S'grouping'
p1975
aI986
aa(lp1976
S'true'
p1977
aI987
aa(lp1978
S'mormaerdom'
p1979
aI988
aa(lp1980
S'protestant'
p1981
aI989
aa(lp1982
S'portions'
p1983
aI990
aa(lp1984
S'consequences'
p1985
aI991
aa(lp1986
S'azn'
p1987
aI992
aa(lp1988
S'centralist'
p1989
aI993
aa(lp1990
S'markets'
p1991
aI994
aa(lp1992
S'inside'
p1993
aI995
aa(lp1994
S'10.8%'
p1995
aI996
aa(lp1996
S'staged'
p1997
aI997
aa(lp1998
S'bolshevism'
p1999
aI998
aa(lp2000
S'devices'
p2001
aI999
aa(lp2002
S'donnchad'
p2003
aI1000
aa(lp2004
S'apostles'
p2005
aI1001
aa(lp2006
S'decorate'
p2007
aI1002
aa(lp2008
S'sides'
p2009
aI1003
aa(lp2010
S'errico'
p2011
aI1004
aa(lp2012
S'tubes'
p2013
aI1005
aa(lp2014
S'propaganda'
p2015
aI1006
aa(lp2016
S'communist-'
p2017
aI1007
aa(lp2018
S'penal'
p2019
aI1008
aa(lp2020
S'invergowrie'
p2021
aI1009
aa(lp2022
S'moderna'
p2023
aI1010
aa(lp2024
S'proved'
p2025
aI1011
aa(lp2026
S'zeno'
p2027
aI1012
aa(lp2028
S'computing'
p2029
aI1013
aa(lp2030
S'sinful'
p2031
aI1014
aa(lp2032
S'escape'
p2033
aI1015
aa(lp2034
S'proven'
p2035
aI1016
aa(lp2036
S'evidence'
p2037
aI1017
aa(lp2038
S'exist'
p2039
aI1018
aa(lp2040
S'telecoms'
p2041
aI1019
aa(lp2042
S'marxists'
p2043
aI1020
aa(lp2044
S'floating'
p2045
aI1021
aa(lp2046
S'indirect'
p2047
aI1022
aa(lp2048
S'hand-drawn'
p2049
aI1023
aa(lp2050
S'regime'
p2051
aI1024
aa(lp2052
S'popolare'
p2053
aI1025
aa(lp2054
S'marxist'
p2055
aI1026
aa(lp2056
S'upheaval'
p2057
aI1027
aa(lp2058
S'no'
p2059
aI1028
aa(lp2060
S'whereas'
p2061
aI1029
aa(lp2062
S'generally'
p2063
aI1030
aa(lp2064
S'aztrank'
p2065
aI1031
aa(lp2066
S'reality'
p2067
aI1032
aa(lp2068
S"anarchism's"
p2069
aI1033
aa(lp2070
S'role'
p2071
aI1034
aa(lp2072
S'holding'
p2073
aI1035
aa(lp2074
S'papers'
p2075
aI1036
aa(lp2076
S'test'
p2077
aI1037
aa(lp2078
S'criminalized'
p2079
aI1038
aa(lp2080
S'marxism'
p2081
aI1039
aa(lp2082
S'woodcock'
p2083
aI1040
aa(lp2084
S'0080'
p2085
aI1041
aa(lp2086
S'operators'
p2087
aI1042
aa(lp2088
S'heyday'
p2089
aI1043
aa(lp2090
S'exporter'
p2091
aI1044
aa(lp2092
S'brothers'
p2093
aI1045
aa(lp2094
S'porvenir'
p2095
aI1046
aa(lp2096
S'why'
p2097
aI1047
aa(lp2098
S'mechanical'
p2099
aI1048
aa(lp2100
S'christiaan'
p2101
aI1049
aa(lp2102
S'invested'
p2103
aI1050
aa(lp2104
S'rising'
p2105
aI1051
aa(lp2106
S'variable'
p2107
aI1052
aa(lp2108
S'senior'
p2109
aI1053
aa(lp2110
S'died'
p2111
aI1054
aa(lp2112
S'scholar'
p2113
aI1055
aa(lp2114
S'billion'
p2115
aI1056
aa(lp2116
S'instrumental'
p2117
aI1057
aa(lp2118
S'militias'
p2119
aI1058
aa(lp2120
S'30,000'
p2121
aI1059
aa(lp2122
S'longer'
p2123
aI1060
aa(lp2124
S'coluim'
p2125
aI1061
aa(lp2126
S'critchley'
p2127
aI1062
aa(lp2128
S'blushing'
p2129
aI1063
aa(lp2130
S'together'
p2131
aI1064
aa(lp2132
S'60\xc2\xa0hz'
p2133
aI1065
aa(lp2134
S'lazarus'
p2135
aI1066
aa(lp2136
S'time'
p2137
aI1067
aa(lp2138
S'push'
p2139
aI1068
aa(lp2140
S'uprisings'
p2141
aI1069
aa(lp2142
S'precedent'
p2143
aI1070
aa(lp2144
S'profits'
p2145
aI1071
aa(lp2146
S'songs'
p2147
aI1072
aa(lp2148
S'precise'
p2149
aI1073
aa(lp2150
S'anti-state'
p2151
aI1074
aa(lp2152
S'concept'
p2153
aI1075
aa(lp2154
S'managed'
p2155
aI1076
aa(lp2156
S'corps'
p2157
aI1077
aa(lp2158
S'launchers'
p2159
aI1078
aa(lp2160
S'global'
p2161
aI1079
aa(lp2162
S'truncated'
p2163
aI1080
aa(lp2164
S'focus'
p2165
aI1081
aa(lp2166
S'themes'
p2167
aI1082
aa(lp2168
S'mile'
p2169
aI1083
aa(lp2170
S'citium'
p2171
aI1084
aa(lp2172
S'computation'
p2173
aI1085
aa(lp2174
S'goddesses'
p2175
aI1086
aa(lp2176
S'creative'
p2177
aI1087
aa(lp2178
S'devoted'
p2179
aI1088
aa(lp2180
S'contributing'
p2181
aI1089
aa(lp2182
S'21st'
p2183
aI1090
aa(lp2184
S'kars\xe2\x80\x93tbilisi\xe2\x80\x93baku'
p2185
aI1091
aa(lp2186
S'1942'
p2187
aI1092
aa(lp2188
S'1943'
p2189
aI1093
aa(lp2190
S'1940'
p2191
aI1094
aa(lp2192
S'1941'
p2193
aI1095
aa(lp2194
S'father'
p2195
aI1096
aa(lp2196
S'1947'
p2197
aI1097
aa(lp2198
S'1944'
p2199
aI1098
aa(lp2200
S'suzumiya'
p2201
aI1099
aa(lp2202
S'finally'
p2203
aI1100
aa(lp2204
S'supplies'
p2205
aI1101
aa(lp2206
S'18th-century'
p2207
aI1102
aa(lp2208
S'sovereignty'
p2209
aI1103
aa(lp2210
S'must'
p2211
aI1104
aa(lp2212
S'$20'
p2213
aI1105
aa(lp2214
S'federation'
p2215
aI1106
aa(lp2216
S'advantage'
p2217
aI1107
aa(lp2218
S'could'
p2219
aI1108
aa(lp2220
S'images'
p2221
aI1109
aa(lp2222
S'emphasizes'
p2223
aI1110
aa(lp2224
S'seemingly'
p2225
aI1111
aa(lp2226
S'1923'
p2227
aI1112
aa(lp2228
S'broutchoux'
p2229
aI1113
aa(lp2230
S'collectivist-'
p2231
aI1114
aa(lp2232
S'anonymous'
p2233
aI1115
aa(lp2234
S'artwork'
p2235
aI1116
aa(lp2236
S'self-proclaimed'
p2237
aI1117
aa(lp2238
S'join'
p2239
aI1118
aa(lp2240
S'trouble'
p2241
aI1119
aa(lp2242
S'franco-prussian'
p2243
aI1120
aa(lp2244
S'pious'
p2245
aI1121
aa(lp2246
S'catalonia'
p2247
aI1122
aa(lp2248
S'slapstick'
p2249
aI1123
aa(lp2250
S'\xe2\x80\x9ccantonalist,\xe2\x80\x9d'
p2251
aI1124
aa(lp2252
S'level'
p2253
aI1125
aa(lp2254
S'did'
p2255
aI1126
aa(lp2256
S'henri'
p2257
aI1127
aa(lp2258
S'brother'
p2259
aI1128
aa(lp2260
S'solved'
p2261
aI1129
aa(lp2262
S'depositors'
p2263
aI1130
aa(lp2264
S'excellence'
p2265
aI1131
aa(lp2266
S'live-action'
p2267
aI1132
aa(lp2268
S'team'
p2269
aI1133
aa(lp2270
S'1.58\xc2\xa0million'
p2271
aI1134
aa(lp2272
S'proudhon\xc2\xb4s'
p2273
aI1135
aa(lp2274
S'der'
p2275
aI1136
aa(lp2276
S'added'
p2277
aI1137
aa(lp2278
S'attracting'
p2279
aI1138
aa(lp2280
S'privatized'
p2281
aI1139
aa(lp2282
S'prevent'
p2283
aI1140
aa(lp2284
S'ezra'
p2285
aI1141
aa(lp2286
S'revolution'
p2287
aI1142
aa(lp2288
S'slower'
p2289
aI1143
aa(lp2290
S'three-dimensional'
p2291
aI1144
aa(lp2292
S'bonnot'
p2293
aI1145
aa(lp2294
S'be'
p2295
aI1146
aa(lp2296
S'trend'
p2297
aI1147
aa(lp2298
S'1122'
p2299
aI1148
aa(lp2300
S'baku'
p2301
aI1149
aa(lp2302
S'1124'
p2303
aI1150
aa(lp2304
S'depictions'
p2305
aI1151
aa(lp2306
S'cost'
p2307
aI1152
aa(lp2308
S'maximilien'
p2309
aI1153
aa(lp2310
S'azeriqaz'
p2311
aI1154
aa(lp2312
S'41.7%'
p2313
aI1155
aa(lp2314
S'resurgence'
p2315
aI1156
aa(lp2316
S'educate'
p2317
aI1157
aa(lp2318
S'adds'
p2319
aI1158
aa(lp2320
S'appear'
p2321
aI1159
aa(lp2322
S'comparable'
p2323
aI1160
aa(lp2324
S'autonomist'
p2325
aI1161
aa(lp2326
S'favour'
p2327
aI1162
aa(lp2328
S'shares'
p2329
aI1163
aa(lp2330
S'current'
p2331
aI1164
aa(lp2332
S'remembered'
p2333
aI1165
aa(lp2334
S'annals'
p2335
aI1166
aa(lp2336
S'chikara'
p2337
aI1167
aa(lp2338
S'1104'
p2339
aI1168
aa(lp2340
S'illustrations'
p2341
aI1169
aa(lp2342
S'international'
p2343
aI1170
aa(lp2344
S'falling'
p2345
aI1171
aa(lp2346
S'principal'
p2347
aI1172
aa(lp2348
S'supporting'
p2349
aI1173
aa(lp2350
S'realizing'
p2351
aI1174
aa(lp2352
S'transportation'
p2353
aI1175
aa(lp2354
S'roundhead'
p2355
aI1176
aa(lp2356
S'honour'
p2357
aI1177
aa(lp2358
S'henry'
p2359
aI1178
aa(lp2360
S'pedagogic'
p2361
aI1179
aa(lp2362
S'edmund'
p2363
aI1180
aa(lp2364
S'french'
p2365
aI1181
aa(lp2366
S'agreement'
p2367
aI1182
aa(lp2368
S'corporation'
p2369
aI1183
aa(lp2370
S'oranienburg'
p2371
aI1184
aa(lp2372
S'twentieth'
p2373
aI1185
aa(lp2374
S'groups'
p2375
aI1186
aa(lp2376
S'akin'
p2377
aI1187
aa(lp2378
S'alone'
p2379
aI1188
aa(lp2380
S'along'
p2381
aI1189
aa(lp2382
S'dwindling'
p2383
aI1190
aa(lp2384
S'earthquake'
p2385
aI1191
aa(lp2386
S'change'
p2387
aI1192
aa(lp2388
S'platformist'
p2389
aI1193
aa(lp2390
S'boy'
p2391
aI1194
aa(lp2392
S'1,397,000'
p2393
aI1195
aa(lp2394
S'mearns'
p2395
aI1196
aa(lp2396
S'exemplified'
p2397
aI1197
aa(lp2398
S'thurstan'
p2399
aI1198
aa(lp2400
S'simulcasts'
p2401
aI1199
aa(lp2402
S'east'
p2403
aI1200
aa(lp2404
S'commonly'
p2405
aI1201
aa(lp2406
S'example'
p2407
aI1202
aa(lp2408
S'exploitation'
p2409
aI1203
aa(lp2410
S'brighten'
p2411
aI1204
aa(lp2412
S'simultaneous'
p2413
aI1205
aa(lp2414
S'historical'
p2415
aI1206
aa(lp2416
S'renzo'
p2417
aI1207
aa(lp2418
S'usually'
p2419
aI1208
aa(lp2420
S'platformism'
p2421
aI1209
aa(lp2422
S'exile'
p2423
aI1210
aa(lp2424
S"country's"
p2425
aI1211
aa(lp2426
S'430'
p2427
aI1212
aa(lp2428
S'italiana'
p2429
aI1213
aa(lp2430
S'-ismos'
p2431
aI1214
aa(lp2432
S'discontinued'
p2433
aI1215
aa(lp2434
S'love'
p2435
aI1216
aa(lp2436
S'voline'
p2437
aI1217
aa(lp2438
S'proportion'
p2439
aI1218
aa(lp2440
S'gustafson'
p2441
aI1219
aa(lp2442
S'marked'
p2443
aI1220
aa(lp2444
S'modifying'
p2445
aI1221
aa(lp2446
S'sonnenburg'
p2447
aI1222
aa(lp2448
S'licensing'
p2449
aI1223
aa(lp2450
S'reichstag'
p2451
aI1224
aa(lp2452
S'operational'
p2453
aI1225
aa(lp2454
S'crisis'
p2455
aI1226
aa(lp2456
S'market'
p2457
aI1227
aa(lp2458
S'everybody'
p2459
aI1228
aa(lp2460
S'opposes'
p2461
aI1229
aa(lp2462
S'gonzo'
p2463
aI1230
aa(lp2464
S'franco'
p2465
aI1231
aa(lp2466
S'working'
p2467
aI1232
aa(lp2468
S'surroundings'
p2469
aI1233
aa(lp2470
S'representing'
p2471
aI1234
aa(lp2472
S'positive'
p2473
aI1235
aa(lp2474
S"zhuangzi's"
p2475
aI1236
aa(lp2476
S'visit'
p2477
aI1237
aa(lp2478
S'predictions'
p2479
aI1238
aa(lp2480
S'angela'
p2481
aI1239
aa(lp2482
S'france'
p2483
aI1240
aa(lp2484
S'anim\xc4\x93shon'
p2485
aI1241
aa(lp2486
S'territories'
p2487
aI1242
aa(lp2488
S'live'
p2489
aI1243
aa(lp2490
S'francesc'
p2491
aI1244
aa(lp2492
S'opposed'
p2493
aI1245
aa(lp2494
S'peru'
p2495
aI1246
aa(lp2496
S'memory'
p2497
aI1247
aa(lp2498
S'films'
p2499
aI1248
aa(lp2500
S'scope'
p2501
aI1249
aa(lp2502
S'theoretical'
p2503
aI1250
aa(lp2504
S'today'
p2505
aI1251
aa(lp2506
S'sharing'
p2507
aI1252
aa(lp2508
S'crayon'
p2509
aI1253
aa(lp2510
S'tsarist'
p2511
aI1254
aa(lp2512
S'gimenez'
p2513
aI1255
aa(lp2514
S'abandonment'
p2515
aI1256
aa(lp2516
S'apparent'
p2517
aI1257
aa(lp2518
S'refrain'
p2519
aI1258
aa(lp2520
S'star-racers'
p2521
aI1259
aa(lp2522
S'visual'
p2523
aI1260
aa(lp2524
S'free-thought'
p2525
aI1261
aa(lp2526
S'd\xc3\xa9jacque'
p2527
aI1262
aa(lp2528
S'cases'
p2529
aI1263
aa(lp2530
S'andalusia'
p2531
aI1264
aa(lp2532
S'beluga'
p2533
aI1265
aa(lp2534
S'atanasoff'
p2535
aI1266
aa(lp2536
S'organizations'
p2537
aI1267
aa(lp2538
S'graphic'
p2539
aI1268
aa(lp2540
S'slogan'
p2541
aI1269
aa(lp2542
S'ibm'
p2543
aI1270
aa(lp2544
S'tokyo'
p2545
aI1271
aa(lp2546
S'deformed'
p2547
aI1272
aa(lp2548
S'snow'
p2549
aI1273
aa(lp2550
S'originally'
p2551
aI1274
aa(lp2552
S'luigi'
p2553
aI1275
aa(lp2554
S'districts'
p2555
aI1276
aa(lp2556
S'latrine'
p2557
aI1277
aa(lp2558
S'labeled'
p2559
aI1278
aa(lp2560
S'values'
p2561
aI1279
aa(lp2562
S'can'
p2563
aI1280
aa(lp2564
S'growing'
p2565
aI1281
aa(lp2566
S'making'
p2567
aI1282
aa(lp2568
S'arrive'
p2569
aI1283
aa(lp2570
S'deceased'
p2571
aI1284
aa(lp2572
S'iconography'
p2573
aI1285
aa(lp2574
S'claim'
p2575
aI1286
aa(lp2576
S'dedicated'
p2577
aI1287
aa(lp2578
S'citizens'
p2579
aI1288
aa(lp2580
S'figure'
p2581
aI1289
aa(lp2582
S'edna'
p2583
aI1290
aa(lp2584
S'december'
p2585
aI1291
aa(lp2586
S'licensed'
p2587
aI1292
aa(lp2588
S'shahin'
p2589
aI1293
aa(lp2590
S'1980s'
p2591
aI1294
aa(lp2592
S'death'
p2593
aI1295
aa(lp2594
S'critic'
p2595
aI1296
aa(lp2596
S'konrad'
p2597
aI1297
aa(lp2598
S'dropped'
p2599
aI1298
aa(lp2600
S'council'
p2601
aI1299
aa(lp2602
S'allowed'
p2603
aI1300
aa(lp2604
S'spa'
p2605
aI1301
aa(lp2606
S'eilean'
p2607
aI1302
aa(lp2608
S'occur'
p2609
aI1303
aa(lp2610
S'swedish'
p2611
aI1304
aa(lp2612
S'winter'
p2613
aI1305
aa(lp2614
S'tube'
p2615
aI1306
aa(lp2616
S'divided'
p2617
aI1307
aa(lp2618
S'cuba'
p2619
aI1308
aa(lp2620
S'mistakenly'
p2621
aI1309
aa(lp2622
S'tomoyasu'
p2623
aI1310
aa(lp2624
S'1'
p2625
aI1311
aa(lp2626
S"state's"
p2627
aI1312
aa(lp2628
S'nihilist'
p2629
aI1313
aa(lp2630
S'corridor'
p2631
aI1314
aa(lp2632
S'divider'
p2633
aI1315
aa(lp2634
S'economy'
p2635
aI1316
aa(lp2636
S'product'
p2637
aI1317
aa(lp2638
S'information'
p2639
aI1318
aa(lp2640
S'may'
p2641
aI1319
aa(lp2642
S'max'
p2643
aI1320
aa(lp2644
S'southern'
p2645
aI1321
aa(lp2646
S'needs'
p2647
aI1322
aa(lp2648
S'freethought'
p2649
aI1323
aa(lp2650
S'fascism'
p2651
aI1324
aa(lp2652
S'mac'
p2653
aI1325
aa(lp2654
S'produce'
p2655
aI1326
aa(lp2656
S'laozi'
p2657
aI1327
aa(lp2658
S'designed'
p2659
aI1328
aa(lp2660
S'seitarou'
p2661
aI1329
aa(lp2662
S'date'
p2663
aI1330
aa(lp2664
S'such'
p2665
aI1331
aa(lp2666
S'fansubbers'
p2667
aI1332
aa(lp2668
S'data'
p2669
aI1333
aa(lp2670
S'grow'
p2671
aI1334
aa(lp2672
S'tarrida'
p2673
aI1335
aa(lp2674
S'man'
p2675
aI1336
aa(lp2676
S'noun'
p2677
aI1337
aa(lp2678
S'highlights'
p2679
aI1338
aa(lp2680
S'sectors'
p2681
aI1339
aa(lp2682
S'conscious'
p2683
aI1340
aa(lp2684
S'6th'
p2685
aI1341
aa(lp2686
S'st'
p2687
aI1342
aa(lp2688
S'tale'
p2689
aI1343
aa(lp2690
S'switch'
p2691
aI1344
aa(lp2692
S'jail'
p2693
aI1345
aa(lp2694
S'tall'
p2695
aI1346
aa(lp2696
S'increase'
p2697
aI1347
aa(lp2698
S'manga'
p2699
aI1348
aa(lp2700
S'michel'
p2701
aI1349
aa(lp2702
S'typical'
p2703
aI1350
aa(lp2704
S'exclusive'
p2705
aI1351
aa(lp2706
S'comfort'
p2707
aI1352
aa(lp2708
S'aforementioned'
p2709
aI1353
aa(lp2710
S'noteworthy'
p2711
aI1354
aa(lp2712
S'indeed'
p2713
aI1355
aa(lp2714
S'displayed'
p2715
aI1356
aa(lp2716
S'flips'
p2717
aI1357
aa(lp2718
S'argues'
p2719
aI1358
aa(lp2720
S'stability'
p2721
aI1359
aa(lp2722
S'ended'
p2723
aI1360
aa(lp2724
S'episodes'
p2725
aI1361
aa(lp2726
S'experiments'
p2727
aI1362
aa(lp2728
S'differs'
p2729
aI1363
aa(lp2730
S'statements'
p2731
aI1364
aa(lp2732
S'cold'
p2733
aI1365
aa(lp2734
S'still'
p2735
aI1366
aa(lp2736
S'ieee'
p2737
aI1367
aa(lp2738
S'tendency'
p2739
aI1368
aa(lp2740
S'cola'
p2741
aI1369
aa(lp2742
S'caucasus'
p2743
aI1370
aa(lp2744
S'1833'
p2745
aI1371
aa(lp2746
S'accepted'
p2747
aI1372
aa(lp2748
S'group'
p2749
aI1373
aa(lp2750
S'internationally'
p2751
aI1374
aa(lp2752
S'how'
p2753
aI1375
aa(lp2754
S'confessor'
p2755
aI1376
aa(lp2756
S'organisation'
p2757
aI1377
aa(lp2758
S'forms'
p2759
aI1378
aa(lp2760
S'platform'
p2761
aI1379
aa(lp2762
S'broadcasts'
p2763
aI1380
aa(lp2764
S'offers'
p2765
aI1381
aa(lp2766
S'dwarfs'
p2767
aI1382
aa(lp2768
S'chernyi'
p2769
aI1383
aa(lp2770
S'policy'
p2771
aI1384
aa(lp2772
S'stemming'
p2773
aI1385
aa(lp2774
S'main'
p2775
aI1386
aa(lp2776
S'conquest'
p2777
aI1387
aa(lp2778
S'within'
p2779
aI1388
aa(lp2780
S'disparate'
p2781
aI1389
aa(lp2782
S'views'
p2783
aI1390
aa(lp2784
S'grandson'
p2785
aI1391
aa(lp2786
S'100,000'
p2787
aI1392
aa(lp2788
S'indigenous'
p2789
aI1393
aa(lp2790
S'tucker'
p2791
aI1394
aa(lp2792
S'half'
p2793
aI1395
aa(lp2794
S'not'
p2795
aI1396
aa(lp2796
S'determinants'
p2797
aI1397
aa(lp2798
S'now'
p2799
aI1398
aa(lp2800
S'killed'
p2801
aI1399
aa(lp2802
S'nor'
p2803
aI1400
aa(lp2804
S'term'
p2805
aI1401
aa(lp2806
S'waisbrooker'
p2807
aI1402
aa(lp2808
S'equality'
p2809
aI1403
aa(lp2810
S'name'
p2811
aI1404
aa(lp2812
S'82%'
p2813
aI1405
aa(lp2814
S'january'
p2815
aI1406
aa(lp2816
S'settings'
p2817
aI1407
aa(lp2818
S'47'
p2819
aI1408
aa(lp2820
S'precipitated'
p2821
aI1409
aa(lp2822
S'possibilities'
p2823
aI1410
aa(lp2824
S'realistic'
p2825
aI1411
aa(lp2826
S'peasant'
p2827
aI1412
aa(lp2828
S'bolshevik'
p2829
aI1413
aa(lp2830
S'rock'
p2831
aI1414
aa(lp2832
S'entirely'
p2833
aI1415
aa(lp2834
S'quarter'
p2835
aI1416
aa(lp2836
S'realism'
p2837
aI1417
aa(lp2838
S'el'
p2839
aI1418
aa(lp2840
S'taoist'
p2841
aI1419
aa(lp2842
S'square'
p2843
aI1420
aa(lp2844
S'prompted'
p2845
aI1421
aa(lp2846
S"heywood's"
p2847
aI1422
aa(lp2848
S'ideologically'
p2849
aI1423
aa(lp2850
S'conventions'
p2851
aI1424
aa(lp2852
S'contributor'
p2853
aI1425
aa(lp2854
S'supplant'
p2855
aI1426
aa(lp2856
S'begun'
p2857
aI1427
aa(lp2858
S'year'
p2859
aI1428
aa(lp2860
S'eu'
p2861
aI1429
aa(lp2862
S'girl'
p2863
aI1430
aa(lp2864
S'morning'
p2865
aI1431
aa(lp2866
S'sunrise'
p2867
aI1432
aa(lp2868
S'minority'
p2869
aI1433
aa(lp2870
S'canada'
p2871
aI1434
aa(lp2872
S'living'
p2873
aI1435
aa(lp2874
S'shown'
p2875
aI1436
aa(lp2876
S'citing'
p2877
aI1437
aa(lp2878
S'opened'
p2879
aI1438
aa(lp2880
S'intercourse'
p2881
aI1439
aa(lp2882
S'profit'
p2883
aI1440
aa(lp2884
S'furthermore'
p2885
aI1441
aa(lp2886
S'miyazaki'
p2887
aI1442
aa(lp2888
S'looking'
p2889
aI1443
aa(lp2890
S'attracted'
p2891
aI1444
aa(lp2892
S'seriously'
p2893
aI1445
aa(lp2894
S'imperative'
p2895
aI1446
aa(lp2896
S'emerged'
p2897
aI1447
aa(lp2898
S'internet'
p2899
aI1448
aa(lp2900
S'dismemberment'
p2901
aI1449
aa(lp2902
S'anarchist-communists'
p2903
aI1450
aa(lp2904
S'receiving'
p2905
aI1451
aa(lp2906
S'shows'
p2907
aI1452
aa(lp2908
S'inevitably'
p2909
aI1453
aa(lp2910
S'earlier'
p2911
aI1454
aa(lp2912
S'summerhill'
p2913
aI1455
aa(lp2914
S'theory'
p2915
aI1456
aa(lp2916
S'presper'
p2917
aI1457
aa(lp2918
S'ivan'
p2919
aI1458
aa(lp2920
S'bootlegged'
p2921
aI1459
aa(lp2922
S'million'
p2923
aI1460
aa(lp2924
S'non-bank'
p2925
aI1461
aa(lp2926
S'electrified'
p2927
aI1462
aa(lp2928
S'possibility'
p2929
aI1463
aa(lp2930
S'quite'
p2931
aI1464
aa(lp2932
S'proponents'
p2933
aI1465
aa(lp2934
S'statistics'
p2935
aI1466
aa(lp2936
S'california'
p2937
aI1467
aa(lp2938
S'federations'
p2939
aI1468
aa(lp2940
S'carl'
p2941
aI1469
aa(lp2942
S'teufel'
p2943
aI1470
aa(lp2944
S'obligation'
p2945
aI1471
aa(lp2946
S'ore'
p2947
aI1472
aa(lp2948
S'marine'
p2949
aI1473
aa(lp2950
S'card'
p2951
aI1474
aa(lp2952
S'care'
p2953
aI1475
aa(lp2954
S'patronage'
p2955
aI1476
aa(lp2956
S'advance'
p2957
aI1477
aa(lp2958
S'amsterdam'
p2959
aI1478
aa(lp2960
S'anarcho-feminism'
p2961
aI1479
aa(lp2962
S'anarcho-communists'
p2963
aI1480
aa(lp2964
S'language'
p2965
aI1481
aa(lp2966
S'ministry'
p2967
aI1482
aa(lp2968
S'unlicensed'
p2969
aI1483
aa(lp2970
S'transition'
p2971
aI1484
aa(lp2972
S'proudhonian'
p2973
aI1485
aa(lp2974
S'hong'
p2975
aI1486
aa(lp2976
S'british'
p2977
aI1487
aa(lp2978
S'motion'
p2979
aI1488
aa(lp2980
S'turn'
p2981
aI1489
aa(lp2982
S'best-known'
p2983
aI1490
aa(lp2984
S'place'
p2985
aI1491
aa(lp2986
S'undesirable'
p2987
aI1492
aa(lp2988
S'styles'
p2989
aI1493
aa(lp2990
S'nonprofit'
p2991
aI1494
aa(lp2992
S'view'
p2993
aI1495
aa(lp2994
S'tadahito'
p2995
aI1496
aa(lp2996
S'first'
p2997
aI1497
aa(lp2998
S'origin'
p2999
aI1498
aa(lp3000
S'benefited'
p3001
aI1499
aa(lp3002
S'surviving'
p3003
aI1500
aa(lp3004
S'revenue'
p3005
aI1501
aa(lp3006
S'variables'
p3007
aI1502
aa(lp3008
S'amoureux'
p3009
aI1503
aa(lp3010
S'one'
p3011
aI1504
aa(lp3012
S'simplified'
p3013
aI1505
aa(lp3014
S'long'
p3015
aI1506
aa(lp3016
S'directly'
p3017
aI1507
aa(lp3018
S'spanish'
p3019
aI1508
aa(lp3020
S'4,755,100\xc2\xa0hectares'
p3021
aI1509
aa(lp3022
S'open'
p3023
aI1510
aa(lp3024
S'george'
p3025
aI1511
aa(lp3026
S'millions'
p3027
aI1512
aa(lp3028
S'centrality'
p3029
aI1513
aa(lp3030
S'1910s'
p3031
aI1514
aa(lp3032
S'little'
p3033
aI1515
aa(lp3034
S'twenty-nine'
p3035
aI1516
aa(lp3036
S'sheet'
p3037
aI1517
aa(lp3038
S'subversives'
p3039
aI1518
aa(lp3040
S'district'
p3041
aI1519
aa(lp3042
S'mhaol'
p3043
aI1520
aa(lp3044
S'anderson'
p3045
aI1521
aa(lp3046
S'lesbian'
p3047
aI1522
aa(lp3048
S'2'
p3049
aI1523
aa(lp3050
S'draft'
p3051
aI1524
aa(lp3052
S'aiding'
p3053
aI1525
aa(lp3054
S'convention'
p3055
aI1526
aa(lp3056
S'reappropriation'
p3057
aI1527
aa(lp3058
S'legally'
p3059
aI1528
aa(lp3060
S'white'
p3061
aI1529
aa(lp3062
S'61%'
p3063
aI1530
aa(lp3064
S'structures'
p3065
aI1531
aa(lp3066
S'cite'
p3067
aI1532
aa(lp3068
S'rosario'
p3069
aI1533
aa(lp3070
S'bear'
p3071
aI1534
aa(lp3072
S'1999'
p3073
aI1535
aa(lp3074
S'eyes'
p3075
aI1536
aa(lp3076
S'anarchism."blackwell'
p3077
aI1537
aa(lp3078
S'fraction'
p3079
aI1538
aa(lp3080
S'mostly'
p3081
aI1539
aa(lp3082
S'that'
p3083
aI1540
aa(lp3084
S'ownership'
p3085
aI1541
aa(lp3086
S'moscow'
p3087
aI1542
aa(lp3088
S'continuous'
p3089
aI1543
aa(lp3090
S'accurately'
p3091
aI1544
aa(lp3092
S'alan'
p3093
aI1545
aa(lp3094
S'broadcast'
p3095
aI1546
aa(lp3096
S'released'
p3097
aI1547
aa(lp3098
S'baja'
p3099
aI1548
aa(lp3100
S'probably'
p3101
aI1549
aa(lp3102
S'cartoon'
p3103
aI1550
aa(lp3104
S'republic'
p3105
aI1551
aa(lp3106
S'undoubtedly'
p3107
aI1552
aa(lp3108
S'than'
p3109
aI1553
aa(lp3110
S'population'
p3111
aI1554
aa(lp3112
S'non-systematic'
p3113
aI1555
aa(lp3114
S'wide'
p3115
aI1556
aa(lp3116
S'television'
p3117
aI1557
aa(lp3118
S'anti-authoritarian'
p3119
aI1558
aa(lp3120
S'third'
p3121
aI1559
aa(lp3122
S'accordance'
p3123
aI1560
aa(lp3124
S'19'
p3125
aI1561
aa(lp3126
S'18'
p3127
aI1562
aa(lp3128
S'require'
p3129
aI1563
aa(lp3130
S'resemble'
p3131
aI1564
aa(lp3132
S'transferred'
p3133
aI1565
aa(lp3134
S"d'escures"
p3135
aI1566
aa(lp3136
S'future'
p3137
aI1567
aa(lp3138
S'emphasis'
p3139
aI1568
aa(lp3140
S'were'
p3141
aI1569
aa(lp3142
S'cards'
p3143
aI1570
aa(lp3144
S'aragon'
p3145
aI1571
aa(lp3146
S'russia'
p3147
aI1572
aa(lp3148
S'mcit'
p3149
aI1573
aa(lp3150
S'and'
p3151
aI1574
aa(lp3152
S'formulated'
p3153
aI1575
aa(lp3154
S'contentious'
p3155
aI1576
aa(lp3156
S'sam'
p3157
aI1577
aa(lp3158
S'remained'
p3159
aI1578
aa(lp3160
S'acknowledged'
p3161
aI1579
aa(lp3162
S'topics'
p3163
aI1580
aa(lp3164
S'locations'
p3165
aI1581
aa(lp3166
S'invalidated'
p3167
aI1582
aa(lp3168
S'crossover'
p3169
aI1583
aa(lp3170
S'say'
p3171
aI1584
aa(lp3172
S'insurrection'
p3173
aI1585
aa(lp3174
S'posited'
p3175
aI1586
aa(lp3176
S'allen'
p3177
aI1587
aa(lp3178
S'katakana'
p3179
aI1588
aa(lp3180
S'recover'
p3181
aI1589
aa(lp3182
S'saw'
p3183
aI1590
aa(lp3184
S'any'
p3185
aI1591
aa(lp3186
S'self-realisation'
p3187
aI1592
aa(lp3188
S'eu-sponsored'
p3189
aI1593
aa(lp3190
S'silhouette'
p3191
aI1594
aa(lp3192
S'warriors'
p3193
aI1595
aa(lp3194
S'veteran'
p3195
aI1596
aa(lp3196
S'upgrading'
p3197
aI1597
aa(lp3198
S'ideas'
p3199
aI1598
aa(lp3200
S'equipment'
p3201
aI1599
aa(lp3202
S'goodman'
p3203
aI1600
aa(lp3204
S'animation'
p3205
aI1601
aa(lp3206
S'achieving'
p3207
aI1602
aa(lp3208
S'online'
p3209
aI1603
aa(lp3210
S'performance'
p3211
aI1604
aa(lp3212
S'zhuangzi'
p3213
aI1605
aa(lp3214
S'switching'
p3215
aI1606
aa(lp3216
S'younger'
p3217
aI1607
aa(lp3218
S'multiple'
p3219
aI1608
aa(lp3220
S'co-mingled'
p3221
aI1609
aa(lp3222
S'milieu'
p3223
aI1610
aa(lp3224
S'arguing'
p3225
aI1611
aa(lp3226
S'an-'
p3227
aI1612
aa(lp3228
S'price'
p3229
aI1613
aa(lp3230
S'paid'
p3231
aI1614
aa(lp3232
S'falls'
p3233
aI1615
aa(lp3234
S'iww'
p3235
aI1616
aa(lp3236
S'algebraic'
p3237
aI1617
aa(lp3238
S'wire'
p3239
aI1618
aa(lp3240
S'airing'
p3241
aI1619
aa(lp3242
S'sheets'
p3243
aI1620
aa(lp3244
S'pair'
p3245
aI1621
aa(lp3246
S'america'
p3247
aI1622
aa(lp3248
S'damage'
p3249
aI1623
aa(lp3250
S'forever'
p3251
aI1624
aa(lp3252
S'democratic'
p3253
aI1625
aa(lp3254
S'synonym'
p3255
aI1626
aa(lp3256
S'especially'
p3257
aI1627
aa(lp3258
S'egoists'
p3259
aI1628
aa(lp3260
S'considered'
p3261
aI1629
aa(lp3262
S'later'
p3263
aI1630
aa(lp3264
S'drive'
p3265
aI1631
aa(lp3266
S'wing'
p3267
aI1632
aa(lp3268
S'ways'
p3269
aI1633
aa(lp3270
S'1883\xe2\x80\x931907'
p3271
aI1634
aa(lp3272
S'nuclear'
p3273
aI1635
aa(lp3274
S'professional'
p3275
aI1636
aa(lp3276
S'tomino'
p3277
aI1637
aa(lp3278
S"east's"
p3279
aI1638
aa(lp3280
S'typically'
p3281
aI1639
aa(lp3282
S'laws'
p3283
aI1640
aa(lp3284
S'\xe2\x82\xac9.46'
p3285
aI1641
aa(lp3286
S'cobra'
p3287
aI1642
aa(lp3288
S'shot'
p3289
aI1643
aa(lp3290
S'regulated'
p3291
aI1644
aa(lp3292
S'show'
p3293
aI1645
aa(lp3294
S'german'
p3295
aI1646
aa(lp3296
S'cornea'
p3297
aI1647
aa(lp3298
S'contemporary'
p3299
aI1648
aa(lp3300
S'1992'
p3301
aI1649
aa(lp3302
S'propagandist'
p3303
aI1650
aa(lp3304
S'eliminated'
p3305
aI1651
aa(lp3306
S'anti-corporatist'
p3307
aI1652
aa(lp3308
S'3.7%'
p3309
aI1653
aa(lp3310
S'soviets'
p3311
aI1654
aa(lp3312
S'forecast'
p3313
aI1655
aa(lp3314
S'fifth'
p3315
aI1656
aa(lp3316
S'ground'
p3317
aI1657
aa(lp3318
S'slow'
p3319
aI1658
aa(lp3320
S'adolf'
p3321
aI1659
aa(lp3322
S'reconciling'
p3323
aI1660
aa(lp3324
S'title'
p3325
aI1661
aa(lp3326
S'daily'
p3327
aI1662
aa(lp3328
S'worker-owned'
p3329
aI1663
aa(lp3330
S'robs'
p3331
aI1664
aa(lp3332
S'written'
p3333
aI1665
aa(lp3334
S'crime'
p3335
aI1666
aa(lp3336
S'liberation'
p3337
aI1667
aa(lp3338
S'only'
p3339
aI1668
aa(lp3340
S'explicitly'
p3341
aI1669
aa(lp3342
S'black'
p3343
aI1670
aa(lp3344
S'essence'
p3345
aI1671
aa(lp3346
S'outrage'
p3347
aI1672
aa(lp3348
S'dispute'
p3349
aI1673
aa(lp3350
S'directed'
p3351
aI1674
aa(lp3352
S'occupied'
p3353
aI1675
aa(lp3354
S'get'
p3355
aI1676
aa(lp3356
S'contracts'
p3357
aI1677
aa(lp3358
S'revolutionized'
p3359
aI1678
aa(lp3360
S'designated'
p3361
aI1679
aa(lp3362
S'soon'
p3363
aI1680
aa(lp3364
S'leon'
p3365
aI1681
aa(lp3366
S'cannot'
p3367
aI1682
aa(lp3368
S'nearly'
p3369
aI1683
aa(lp3370
S'enjoys'
p3371
aI1684
aa(lp3372
S'secondary'
p3373
aI1685
aa(lp3374
S'village'
p3375
aI1686
aa(lp3376
S'lauded'
p3377
aI1687
aa(lp3378
S'regarding'
p3379
aI1688
aa(lp3380
S'draws'
p3381
aI1689
aa(lp3382
S'artist'
p3383
aI1690
aa(lp3384
S'people\xe2\x80\x99s'
p3385
aI1691
aa(lp3386
S'colossus'
p3387
aI1692
aa(lp3388
S'reprints'
p3389
aI1693
aa(lp3390
S'planned'
p3391
aI1694
aa(lp3392
S'paper'
p3393
aI1695
aa(lp3394
S'predicted'
p3395
aI1696
aa(lp3396
S'unappealing'
p3397
aI1697
aa(lp3398
S'where'
p3399
aI1698
aa(lp3400
S'liberate'
p3401
aI1699
aa(lp3402
S'declared'
p3403
aI1700
aa(lp3404
S'monarchists'
p3405
aI1701
aa(lp3406
S'imposing'
p3407
aI1702
aa(lp3408
S'attached'
p3409
aI1703
aa(lp3410
S'unmarried'
p3411
aI1704
aa(lp3412
S'derogatory'
p3413
aI1705
aa(lp3414
S'1921'
p3415
aI1706
aa(lp3416
S'1922'
p3417
aI1707
aa(lp3418
S'actively'
p3419
aI1708
aa(lp3420
S'college'
p3421
aI1709
aa(lp3422
S'1926'
p3423
aI1710
aa(lp3424
S'contains'
p3425
aI1711
aa(lp3426
S'calendar'
p3427
aI1712
aa(lp3428
S'aroused'
p3429
aI1713
aa(lp3430
S'purest'
p3431
aI1714
aa(lp3432
S'reputed'
p3433
aI1715
aa(lp3434
S'encouraged'
p3435
aI1716
aa(lp3436
S'post-classical'
p3437
aI1717
aa(lp3438
S'voluntary'
p3439
aI1718
aa(lp3440
S'highest-grossing'
p3441
aI1719
aa(lp3442
S'federal'
p3443
aI1720
aa(lp3444
S'subsequent'
p3445
aI1721
aa(lp3446
S'bootleg'
p3447
aI1722
aa(lp3448
S'label'
p3449
aI1723
aa(lp3450
S'weapons'
p3451
aI1724
aa(lp3452
S'3'
p3453
aI1725
aa(lp3454
S'eco-anarchism'
p3455
aI1726
aa(lp3456
S'charters'
p3457
aI1727
aa(lp3458
S'between'
p3459
aI1728
aa(lp3460
S'mutualists'
p3461
aI1729
aa(lp3462
S"malcolm's"
p3463
aI1730
aa(lp3464
S'reading'
p3465
aI1731
aa(lp3466
S'proudhon'
p3467
aI1732
aa(lp3468
S'schuster'
p3469
aI1733
aa(lp3470
S'subgenres'
p3471
aI1734
aa(lp3472
S'august'
p3473
aI1735
aa(lp3474
S'presenting'
p3475
aI1736
aa(lp3476
S'legitimacy'
p3477
aI1737
aa(lp3478
S'26'
p3479
aI1738
aa(lp3480
S'alexander;<br>he'
p3481
aI1739
aa(lp3482
S'killing'
p3483
aI1740
aa(lp3484
S'japanese-disseminated'
p3485
aI1741
aa(lp3486
S'inchcolm'
p3487
aI1742
aa(lp3488
S'awards'
p3489
aI1743
aa(lp3490
S'referenced'
p3491
aI1744
aa(lp3492
S'nationality'
p3493
aI1745
aa(lp3494
S'capacitors'
p3495
aI1746
aa(lp3496
S'suppressed'
p3497
aI1747
aa(lp3498
S's\xc3\xa9bastien'
p3499
aI1748
aa(lp3500
S'concentrated'
p3501
aI1749
aa(lp3502
S'reaction'
p3503
aI1750
aa(lp3504
S'dates'
p3505
aI1751
aa(lp3506
S'panels'
p3507
aI1752
aa(lp3508
S'efficiency'
p3509
aI1753
aa(lp3510
S'many'
p3511
aI1754
aa(lp3512
S'region'
p3513
aI1755
aa(lp3514
S'trades'
p3515
aI1756
aa(lp3516
S'self-interest'
p3517
aI1757
aa(lp3518
S'according'
p3519
aI1758
aa(lp3520
S'contract'
p3521
aI1759
aa(lp3522
S's'
p3523
aI1760
aa(lp3524
S'kharijites'
p3525
aI1761
aa(lp3526
S'berry'
p3527
aI1762
aa(lp3528
S'fernand'
p3529
aI1763
aa(lp3530
S'non-oil'
p3531
aI1764
aa(lp3532
S'railway'
p3533
aI1765
aa(lp3534
S'dual-triode'
p3535
aI1766
aa(lp3536
S'expression'
p3537
aI1767
aa(lp3538
S'comes'
p3539
aI1768
aa(lp3540
S'stance'
p3541
aI1769
aa(lp3542
S'among'
p3543
aI1770
aa(lp3544
S'armenia'
p3545
aI1771
aa(lp3546
S'color'
p3547
aI1772
aa(lp3548
S'continuation'
p3549
aI1773
aa(lp3550
S'anti-syndicalist'
p3551
aI1774
aa(lp3552
S'period'
p3553
aI1775
aa(lp3554
S'pop'
p3555
aI1776
aa(lp3556
S'innovations'
p3557
aI1777
aa(lp3558
S'60'
p3559
aI1778
aa(lp3560
S'homosexuality'
p3561
aI1779
aa(lp3562
S'walden'
p3563
aI1780
aa(lp3564
S'anti'
p3565
aI1781
aa(lp3566
S'stretched'
p3567
aI1782
aa(lp3568
S'learning'
p3569
aI1783
aa(lp3570
S'moreover'
p3571
aI1784
aa(lp3572
S'perpetuating'
p3573
aI1785
aa(lp3574
S'accordingly'
p3575
aI1786
aa(lp3576
S'transcaucasia'
p3577
aI1787
aa(lp3578
S'nationalist'
p3579
aI1788
aa(lp3580
S'turkey'
p3581
aI1789
aa(lp3582
S'better'
p3583
aI1790
aa(lp3584
S'arts'
p3585
aI1791
aa(lp3586
S'cities'
p3587
aI1792
aa(lp3588
S'anarcho-communism'
p3589
aI1793
aa(lp3590
S'atanasoff\xe2\x80\x93berry'
p3591
aI1794
aa(lp3592
S'impoverishment'
p3593
aI1795
aa(lp3594
S'west'
p3595
aI1796
aa(lp3596
S'filmmakers'
p3597
aI1797
aa(lp3598
S'informed'
p3599
aI1798
aa(lp3600
S'blend'
p3601
aI1799
aa(lp3602
S'dessin'
p3603
aI1800
aa(lp3604
S'orygynale'
p3605
aI1801
aa(lp3606
S'combined'
p3607
aI1802
aa(lp3608
S'post-revolutionary'
p3609
aI1803
aa(lp3610
S'peaceful'
p3611
aI1804
aa(lp3612
S'featuring'
p3613
aI1805
aa(lp3614
S'prototype'
p3615
aI1806
aa(lp3616
S'marx'
p3617
aI1807
aa(lp3618
S'anarcho-communist'
p3619
aI1808
aa(lp3620
S'squatters'
p3621
aI1809
aa(lp3622
S'631'
p3623
aI1810
aa(lp3624
S'direction'
p3625
aI1811
aa(lp3626
S'r\xc3\xa9volt\xc3\xa9'
p3627
aI1812
aa(lp3628
S'unanimously'
p3629
aI1813
aa(lp3630
S'undisputedly'
p3631
aI1814
aa(lp3632
S'offered'
p3633
aI1815
aa(lp3634
S'formed'
p3635
aI1816
aa(lp3636
S'resistance'
p3637
aI1817
aa(lp3638
S'andrew'
p3639
aI1818
aa(lp3640
S'andrej'
p3641
aI1819
aa(lp3642
S'isaac'
p3643
aI1820
aa(lp3644
S'wake'
p3645
aI1821
aa(lp3646
S'minister'
p3647
aI1822
aa(lp3648
S'andr\xc3\xa9'
p3649
aI1823
aa(lp3650
S'drum'
p3651
aI1824
aa(lp3652
S'assassinations'
p3653
aI1825
aa(lp3654
S'irrelevant'
p3655
aI1826
aa(lp3656
S'former'
p3657
aI1827
aa(lp3658
S'those'
p3659
aI1828
aa(lp3660
S'case'
p3661
aI1829
aa(lp3662
S'shaft'
p3663
aI1830
aa(lp3664
S"shimokawa's"
p3665
aI1831
aa(lp3666
S'kappa'
p3667
aI1832
aa(lp3668
S"henry's"
p3669
aI1833
aa(lp3670
S'these'
p3671
aI1834
aa(lp3672
S'advocating'
p3673
aI1835
aa(lp3674
S'sex'
p3675
aI1836
aa(lp3676
S'cast'
p3677
aI1837
aa(lp3678
S'notoriety'
p3679
aI1838
aa(lp3680
S'associates'
p3681
aI1839
aa(lp3682
S'coca'
p3683
aI1840
aa(lp3684
S'newspaper'
p3685
aI1841
aa(lp3686
S'situation'
p3687
aI1842
aa(lp3688
S'shops'
p3689
aI1843
aa(lp3690
S'philosophies'
p3691
aI1844
aa(lp3692
S'bathe'
p3693
aI1845
aa(lp3694
S'eventually'
p3695
aI1846
aa(lp3696
S'characteristics'
p3697
aI1847
aa(lp3698
S'non-japanese'
p3699
aI1848
aa(lp3700
S'canon'
p3701
aI1849
aa(lp3702
S'telephone'
p3703
aI1850
aa(lp3704
S'dissident'
p3705
aI1851
aa(lp3706
S'middle'
p3707
aI1852
aa(lp3708
S'gesell'
p3709
aI1853
aa(lp3710
S'unwritten'
p3711
aI1854
aa(lp3712
S'punched'
p3713
aI1855
aa(lp3714
S'spooner'
p3715
aI1856
aa(lp3716
S'1895'
p3717
aI1857
aa(lp3718
S'anti-clerical'
p3719
aI1858
aa(lp3720
S'technology'
p3721
aI1859
aa(lp3722
S'shashin'
p3723
aI1860
aa(lp3724
S'lukoil'
p3725
aI1861
aa(lp3726
S'movements'
p3727
aI1862
aa(lp3728
S'\xc3\x93engus'
p3729
aI1863
aa(lp3730
S'binary'
p3731
aI1864
aa(lp3732
S'different'
p3733
aI1865
aa(lp3734
S'revolutions'
p3735
aI1866
aa(lp3736
S'develop'
p3737
aI1867
aa(lp3738
S'harsh'
p3739
aI1868
aa(lp3740
S'author'
p3741
aI1869
aa(lp3742
S'oppliger'
p3743
aI1870
aa(lp3744
S'pay'
p3745
aI1871
aa(lp3746
S'granted'
p3747
aI1872
aa(lp3748
S'kronstadt'
p3749
aI1873
aa(lp3750
S'same'
p3751
aI1874
aa(lp3752
S'1,565.88'
p3753
aI1875
aa(lp3754
S'honeywell'
p3755
aI1876
aa(lp3756
S'arguments'
p3757
aI1877
aa(lp3758
S'anarchistic'
p3759
aI1878
aa(lp3760
S'grain'
p3761
aI1879
aa(lp3762
S'stepped'
p3763
aI1880
aa(lp3764
S'document'
p3765
aI1881
aa(lp3766
S'events'
p3767
aI1882
aa(lp3768
S're-interment'
p3769
aI1883
aa(lp3770
S'despised'
p3771
aI1884
aa(lp3772
S'visually'
p3773
aI1885
aa(lp3774
S'oil'
p3775
aI1886
aa(lp3776
S'anti-fascist'
p3777
aI1887
aa(lp3778
S'centuries'
p3779
aI1888
aa(lp3780
S'-izein'
p3781
aI1889
aa(lp3782
S'refusal'
p3783
aI1890
aa(lp3784
S'tezuka'
p3785
aI1891
aa(lp3786
S'marking'
p3787
aI1892
aa(lp3788
S'driven'
p3789
aI1893
aa(lp3790
S'constraining'
p3791
aI1894
aa(lp3792
S'macroeconomic'
p3793
aI1895
aa(lp3794
S'lechartier'
p3795
aI1896
aa(lp3796
S'arose'
p3797
aI1897
aa(lp3798
S'conquered'
p3799
aI1898
aa(lp3800
S'italian'
p3801
aI1899
aa(lp3802
S'tradition'
p3803
aI1900
aa(lp3804
S'squatter'
p3805
aI1901
aa(lp3806
S'perennial'
p3807
aI1902
aa(lp3808
S'largely'
p3809
aI1903
aa(lp3810
S'charges'
p3811
aI1904
aa(lp3812
S'ntsc'
p3813
aI1905
aa(lp3814
S'floor'
p3815
aI1906
aa(lp3816
S'us$300,000'
p3817
aI1907
aa(lp3818
S'magical'
p3819
aI1908
aa(lp3820
S'wessex'
p3821
aI1909
aa(lp3822
S'four-page'
p3823
aI1910
aa(lp3824
S'without'
p3825
aI1911
aa(lp3826
S'solve'
p3827
aI1912
aa(lp3828
S'components'
p3829
aI1913
aa(lp3830
S'dimension'
p3831
aI1914
aa(lp3832
S'researchers'
p3833
aI1915
aa(lp3834
S'consisted'
p3835
aI1916
aa(lp3836
S'gdp'
p3837
aI1917
aa(lp3838
S'gates'
p3839
aI1918
aa(lp3840
S'manifold'
p3841
aI1919
aa(lp3842
S'livestock'
p3843
aI1920
aa(lp3844
S'pakistan'
p3845
aI1921
aa(lp3846
S'being'
p3847
aI1922
aa(lp3848
S'money'
p3849
aI1923
aa(lp3850
S'milestone'
p3851
aI1924
aa(lp3852
S'actions'
p3853
aI1925
aa(lp3854
S'violent'
p3855
aI1926
aa(lp3856
S'cease'
p3857
aI1927
aa(lp3858
S'aspect'
p3859
aI1928
aa(lp3860
S'flavor'
p3861
aI1929
aa(lp3862
S'amoureuse'
p3863
aI1930
aa(lp3864
S'speed'
p3865
aI1931
aa(lp3866
S'weekly'
p3867
aI1932
aa(lp3868
S'sprang'
p3869
aI1933
aa(lp3870
S'renewed'
p3871
aI1934
aa(lp3872
S'westerners'
p3873
aI1935
aa(lp3874
S'feminist'
p3875
aI1936
aa(lp3876
S'anti-statism'
p3877
aI1937
aa(lp3878
S'except'
p3879
aI1938
aa(lp3880
S'allude'
p3881
aI1939
aa(lp3882
S'war-related'
p3883
aI1940
aa(lp3884
S'treatment'
p3885
aI1941
aa(lp3886
S'overthrow'
p3887
aI1942
aa(lp3888
S'electrical'
p3889
aI1943
aa(lp3890
S'feminism'
p3891
aI1944
aa(lp3892
S'ross'
p3893
aI1945
aa(lp3894
S'swim'
p3895
aI1946
aa(lp3896
S'consumption'
p3897
aI1947
aa(lp3898
S'around'
p3899
aI1948
aa(lp3900
S'read'
p3901
aI1949
aa(lp3902
S'ruler'
p3903
aI1950
aa(lp3904
S'digital'
p3905
aI1951
aa(lp3906
S'30-year'
p3907
aI1952
aa(lp3908
S'confines'
p3909
aI1953
aa(lp3910
S'early'
p3911
aI1954
aa(lp3912
S'warehouse'
p3913
aI1955
aa(lp3914
S'netherlands'
p3915
aI1956
aa(lp3916
S'traffic'
p3917
aI1957
aa(lp3918
S'vacuum'
p3919
aI1958
aa(lp3920
S'transcended'
p3921
aI1959
aa(lp3922
S'world'
p3923
aI1960
aa(lp3924
S'execution'
p3925
aI1961
aa(lp3926
S'ruled'
p3927
aI1962
aa(lp3928
S'accusation'
p3929
aI1963
aa(lp3930
S'proponent'
p3931
aI1964
aa(lp3932
S'pounds'
p3933
aI1965
aa(lp3934
S"nickelodeon's"
p3935
aI1966
aa(lp3936
S'shade'
p3937
aI1967
aa(lp3938
S'combines'
p3939
aI1968
aa(lp3940
S'lysander'
p3941
aI1969
aa(lp3942
S'manat'
p3943
aI1970
aa(lp3944
S'discarded'
p3945
aI1971
aa(lp3946
S'audience'
p3947
aI1972
aa(lp3948
S'full-scale'
p3949
aI1973
aa(lp3950
S'anarchic'
p3951
aI1974
aa(lp3952
S'always'
p3953
aI1975
aa(lp3954
S'resolved'
p3955
aI1976
aa(lp3956
S'output'
p3957
aI1977
aa(lp3958
S'3000'
p3959
aI1978
aa(lp3960
S'christiania'
p3961
aI1979
aa(lp3962
S'debut'
p3963
aI1980
aa(lp3964
S'verbal'
p3965
aI1981
aa(lp3966
S'exposed'
p3967
aI1982
aa(lp3968
S'failure'
p3969
aI1983
aa(lp3970
S'bakunin'
p3971
aI1984
aa(lp3972
S'royalists'
p3973
aI1985
aa(lp3974
S'moving'
p3975
aI1986
aa(lp3976
S'competition'
p3977
aI1987
aa(lp3978
S'amongst'
p3979
aI1988
aa(lp3980
S'privatization'
p3981
aI1989
aa(lp3982
S'duration'
p3983
aI1990
aa(lp3984
S'counter-revolution'
p3985
aI1991
aa(lp3986
S'divine'
p3987
aI1992
aa(lp3988
S'organizing'
p3989
aI1993
aa(lp3990
S'reasons'
p3991
aI1994
aa(lp3992
S'kitayama'
p3993
aI1995
aa(lp3994
S'provided'
p3995
aI1996
aa(lp3996
S'chinpokomon'
p3997
aI1997
aa(lp3998
S'teachings'
p3999
aI1998
aa(lp4000
S'highest'
p4001
aI1999
aa(lp4002
S'lend'
p4003
aI2000
aa(lp4004
S"turkey's"
p4005
aI2001
aa(lp4006
S'overly'
p4007
aI2002
aa(lp4008
S'legal'
p4009
aI2003
aa(lp4010
S'conservative'
p4011
aI2004
aa(lp4012
S'critical'
p4013
aI2005
aa(lp4014
S'deficit'
p4015
aI2006
aa(lp4016
S'institutes'
p4017
aI2007
aa(lp4018
S'guillaume'
p4019
aI2008
aa(lp4020
S'1895\xe2\x80\x931897'
p4021
aI2009
aa(lp4022
S'anti-capitalism'
p4023
aI2010
aa(lp4024
S"rousseau's"
p4025
aI2011
aa(lp4026
S'gille'
p4027
aI2012
aa(lp4028
S'accessing'
p4029
aI2013
aa(lp4030
S'scientific'
p4031
aI2014
aa(lp4032
S'power'
p4033
aI2015
aa(lp4034
S'equivalent'
p4035
aI2016
aa(lp4036
S'iconic'
p4037
aI2017
aa(lp4038
S'notably'
p4039
aI2018
aa(lp4040
S'credits'
p4041
aI2019
aa(lp4042
S'shoujo'
p4043
aI2020
aa(lp4044
S'leadership'
p4045
aI2021
aa(lp4046
S'1937'
p4047
aI2022
aa(lp4048
S'1936'
p4049
aI2023
aa(lp4050
S'mid-nineteenth'
p4051
aI2024
aa(lp4052
S'sagra'
p4053
aI2025
aa(lp4054
S'silvio'
p4055
aI2026
aa(lp4056
S'1939'
p4057
aI2027
aa(lp4058
S'refers'
p4059
aI2028
aa(lp4060
S'remarkable'
p4061
aI2029
aa(lp4062
S'berneri'
p4063
aI2030
aa(lp4064
S'on'
p4065
aI2031
aa(lp4066
S'central'
p4067
aI2032
aa(lp4068
S'origins'
p4069
aI2033
aa(lp4070
S'oh'
p4071
aI2034
aa(lp4072
S'reprisals'
p4073
aI2035
aa(lp4074
S'of'
p4075
aI2036
aa(lp4076
S'industry'
p4077
aI2037
aa(lp4078
S'violence'
p4079
aI2038
aa(lp4080
S'inviting'
p4081
aI2039
aa(lp4082
S'practical'
p4083
aI2040
aa(lp4084
S'mutually'
p4085
aI2041
aa(lp4086
S'boldly'
p4087
aI2042
aa(lp4088
S"sybilla's"
p4089
aI2043
aa(lp4090
S'aioc'
p4091
aI2044
aa(lp4092
S'greatly'
p4093
aI2045
aa(lp4094
S'anarcho-syndicalists'
p4095
aI2046
aa(lp4096
S'assassin'
p4097
aI2047
aa(lp4098
S'or'
p4099
aI2048
aa(lp4100
S'road'
p4101
aI2049
aa(lp4102
S'outlook'
p4103
aI2050
aa(lp4104
S'lands'
p4105
aI2051
aa(lp4106
S'protests'
p4107
aI2052
aa(lp4108
S'suppression'
p4109
aI2053
aa(lp4110
S'whites'
p4111
aI2054
aa(lp4112
S'obrera'
p4113
aI2055
aa(lp4114
S'revolutionaries'
p4115
aI2056
aa(lp4116
S'5.8\xc2\xa0mhz'
p4117
aI2057
aa(lp4118
S'nazi'
p4119
aI2058
aa(lp4120
S'titanium'
p4121
aI2059
aa(lp4122
S'authorities'
p4123
aI2060
aa(lp4124
S'references'
p4125
aI2061
aa(lp4126
S'lively'
p4127
aI2062
aa(lp4128
S'parties'
p4129
aI2063
aa(lp4130
S'operator'
p4131
aI2064
aa(lp4132
S'rosso'
p4133
aI2065
aa(lp4134
S'28-go'
p4135
aI2066
aa(lp4136
S'feudal'
p4137
aI2067
aa(lp4138
S'pastures'
p4139
aI2068
aa(lp4140
S'weight'
p4141
aI2069
aa(lp4142
S'her'
p4143
aI2070
aa(lp4144
S'area'
p4145
aI2071
aa(lp4146
S'removing'
p4147
aI2072
aa(lp4148
S'strictly'
p4149
aI2073
aa(lp4150
S'there'
p4151
aI2074
aa(lp4152
S'alleged'
p4153
aI2075
aa(lp4154
S'deadlines'
p4155
aI2076
aa(lp4156
S'christianity'
p4157
aI2077
aa(lp4158
S'self-determined'
p4159
aI2078
aa(lp4160
S'policy-maker'
p4161
aI2079
aa(lp4162
S'appears'
p4163
aI2080
aa(lp4164
S'bookchin'
p4165
aI2081
aa(lp4166
S'osamu'
p4167
aI2082
aa(lp4168
S'anarcho-pacifist'
p4169
aI2083
aa(lp4170
S'decisive'
p4171
aI2084
aa(lp4172
S'equated'
p4173
aI2085
aa(lp4174
S'masquerades'
p4175
aI2086
aa(lp4176
S'intends'
p4177
aI2087
aa(lp4178
S'seeker'
p4179
aI2088
aa(lp4180
S'complete'
p4181
aI2089
aa(lp4182
S'reduce'
p4183
aI2090
aa(lp4184
S'regard'
p4185
aI2091
aa(lp4186
S'107mm'
p4187
aI2092
aa(lp4188
S'sinope'
p4189
aI2093
aa(lp4190
S'state-protected'
p4191
aI2094
aa(lp4192
S'fascists'
p4193
aI2095
aa(lp4194
S"alexander's"
p4195
aI2096
aa(lp4196
S'elimination'
p4197
aI2097
aa(lp4198
S'unreliable'
p4199
aI2098
aa(lp4200
S'technologies'
p4201
aI2099
aa(lp4202
S'trying'
p4203
aI2100
aa(lp4204
S'with'
p4205
aI2101
aa(lp4206
S'post-soviet'
p4207
aI2102
aa(lp4208
S'nonviolence'
p4209
aI2103
aa(lp4210
S'woman'
p4211
aI2104
aa(lp4212
S'october'
p4213
aI2105
aa(lp4214
S'rotation'
p4215
aI2106
aa(lp4216
S'romantic'
p4217
aI2107
aa(lp4218
S"wasn't"
p4219
aI2108
aa(lp4220
S'stalinists'
p4221
aI2109
aa(lp4222
S'1949'
p4223
aI2110
aa(lp4224
S'vhs'
p4225
aI2111
aa(lp4226
S"brother's"
p4227
aI2112
aa(lp4228
S'miguel'
p4229
aI2113
aa(lp4230
S'igualada'
p4231
aI2114
aa(lp4232
S'tones'
p4233
aI2115
aa(lp4234
S'dvd'
p4235
aI2116
aa(lp4236
S'dubbing'
p4237
aI2117
aa(lp4238
S"network's"
p4239
aI2118
aa(lp4240
S'politically'
p4241
aI2119
aa(lp4242
S'compromise'
p4243
aI2120
aa(lp4244
S'powerless'
p4245
aI2121
aa(lp4246
S'recognizing'
p4247
aI2122
aa(lp4248
S'strongly'
p4249
aI2123
aa(lp4250
S'vehicles'
p4251
aI2124
aa(lp4252
S'replacing'
p4253
aI2125
aa(lp4254
S'ad'
p4255
aI2126
aa(lp4256
S'contributors'
p4257
aI2127
aa(lp4258
S'cinema'
p4259
aI2128
aa(lp4260
S'councilist'
p4261
aI2129
aa(lp4262
S'describe'
p4263
aI2130
aa(lp4264
S'moved'
p4265
aI2131
aa(lp4266
S'sales'
p4267
aI2132
aa(lp4268
S'general'
p4269
aI2133
aa(lp4270
S'macross'
p4271
aI2134
aa(lp4272
S'ap'
p4273
aI2135
aa(lp4274
S'as'
p4275
aI2136
aa(lp4276
S'reliability'
p4277
aI2137
aa(lp4278
S'ensuing'
p4279
aI2138
aa(lp4280
S'at'
p4281
aI2139
aa(lp4282
S'file'
p4283
aI2140
aa(lp4284
S'organised'
p4285
aI2141
aa(lp4286
S'lifetime'
p4287
aI2142
aa(lp4288
S'deed'
p4289
aI2143
aa(lp4290
S'goebbels'
p4291
aI2144
aa(lp4292
S'dielo'
p4293
aI2145
aa(lp4294
S'bishop'
p4295
aI2146
aa(lp4296
S'film'
p4297
aI2147
aa(lp4298
S'anarcho-naturism'
p4299
aI2148
aa(lp4300
S'genres'
p4301
aI2149
aa(lp4302
S'piracy'
p4303
aI2150
aa(lp4304
S'storage'
p4305
aI2151
aa(lp4306
S'2000'
p4307
aI2152
aa(lp4308
S'event'
p4309
aI2153
aa(lp4310
S'graeber'
p4311
aI2154
aa(lp4312
S'tight'
p4313
aI2155
aa(lp4314
S'1113'
p4315
aI2156
aa(lp4316
S'1114'
p4317
aI2157
aa(lp4318
S'1116'
p4319
aI2158
aa(lp4320
S'attaining'
p4321
aI2159
aa(lp4322
S'you'
p4323
aI2160
aa(lp4324
S'2007'
p4325
aI2161
aa(lp4326
S'gaining'
p4327
aI2162
aa(lp4328
S'briefly'
p4329
aI2163
aa(lp4330
S'computer-generated'
p4331
aI2164
aa(lp4332
S'congress'
p4333
aI2165
aa(lp4334
S'translated'
p4335
aI2166
aa(lp4336
S'desolation'
p4337
aI2167
aa(lp4338
S'committees'
p4339
aI2168
aa(lp4340
S'includes'
p4341
aI2169
aa(lp4342
S'retrospectively'
p4343
aI2170
aa(lp4344
S'important'
p4345
aI2171
aa(lp4346
S'serious'
p4347
aI2172
aa(lp4348
S'included'
p4349
aI2173
aa(lp4350
S'sweatdrops'
p4351
aI2174
aa(lp4352
S'stocks'
p4353
aI2175
aa(lp4354
S'tendencies'
p4355
aI2176
aa(lp4356
S'beauly'
p4357
aI2177
aa(lp4358
S'building'
p4359
aI2178
aa(lp4360
S'tiger'
p4361
aI2179
aa(lp4362
S"mckinley's"
p4363
aI2180
aa(lp4364
S'assassins'
p4365
aI2181
aa(lp4366
S'assets'
p4367
aI2182
aa(lp4368
S'calls'
p4369
aI2183
aa(lp4370
S'wife'
p4371
aI2184
aa(lp4372
S'controlled'
p4373
aI2185
aa(lp4374
S'firebrand'
p4375
aI2186
aa(lp4376
S"city's"
p4377
aI2187
aa(lp4378
S'websites'
p4379
aI2188
aa(lp4380
S'mass'
p4381
aI2189
aa(lp4382
S'restricted'
p4383
aI2190
aa(lp4384
S'overseas'
p4385
aI2191
aa(lp4386
S'animator'
p4387
aI2192
aa(lp4388
S'transports'
p4389
aI2193
aa(lp4390
S'original'
p4391
aI2194
aa(lp4392
S'external'
p4393
aI2195
aa(lp4394
S'anarcha-feminist'
p4395
aI2196
aa(lp4396
S'represent'
p4397
aI2197
aa(lp4398
S'all'
p4399
aI2198
aa(lp4400
S'emile'
p4401
aI2199
aa(lp4402
S'contemporaneously'
p4403
aI2200
aa(lp4404
S'consider'
p4405
aI2201
aa(lp4406
S'founder'
p4407
aI2202
aa(lp4408
S'caused'
p4409
aI2203
aa(lp4410
S'lack'
p4411
aI2204
aa(lp4412
S'dollar'
p4413
aI2205
aa(lp4414
S'projected'
p4415
aI2206
aa(lp4416
S'founded'
p4417
aI2207
aa(lp4418
S'disc'
p4419
aI2208
aa(lp4420
S'kant\xc5\x8d'
p4421
aI2209
aa(lp4422
S'anarcha-feminism'
p4423
aI2210
aa(lp4424
S'expressions'
p4425
aI2211
aa(lp4426
S'adhere'
p4427
aI2212
aa(lp4428
S'religious'
p4429
aI2213
aa(lp4430
S'reasoning'
p4431
aI2214
aa(lp4432
S'causes'
p4433
aI2215
aa(lp4434
S'referring'
p4435
aI2216
aa(lp4436
S'pornographic'
p4437
aI2217
aa(lp4438
S"l'invention"
p4439
aI2218
aa(lp4440
S'riots'
p4441
aI2219
aa(lp4442
S'to'
p4443
aI2220
aa(lp4444
S'modernization'
p4445
aI2221
aa(lp4446
S'foster'
p4447
aI2222
aa(lp4448
S'socialdemocratic'
p4449
aI2223
aa(lp4450
S'present'
p4451
aI2224
aa(lp4452
S'detroit-based'
p4453
aI2225
aa(lp4454
S'ladhmann'
p4455
aI2226
aa(lp4456
S'believing'
p4457
aI2227
aa(lp4458
S'activities'
p4459
aI2228
aa(lp4460
S'anti-hierarchical'
p4461
aI2229
aa(lp4462
S'returned'
p4463
aI2230
aa(lp4464
S'very'
p4465
aI2231
aa(lp4466
S'eckert'
p4467
aI2232
aa(lp4468
S'translations'
p4469
aI2233
aa(lp4470
S'r18'
p4471
aI2234
aa(lp4472
S'ost'
p4473
aI2235
aa(lp4474
S'fan'
p4475
aI2236
aa(lp4476
S'decide'
p4477
aI2237
aa(lp4478
S'fall'
p4479
aI2238
aa(lp4480
S'naka'
p4481
aI2239
aa(lp4482
S'difference'
p4483
aI2240
aa(lp4484
S'rejects'
p4485
aI2241
aa(lp4486
S'switches'
p4487
aI2242
aa(lp4488
S'moines'
p4489
aI2243
aa(lp4490
S'17th'
p4491
aI2244
aa(lp4492
S'dictatorship'
p4493
aI2245
aa(lp4494
S'issue'
p4495
aI2246
aa(lp4496
S'developing'
p4497
aI2247
aa(lp4498
S'gerrard'
p4499
aI2248
aa(lp4500
S'joined'
p4501
aI2249
aa(lp4502
S'kiosks'
p4503
aI2250
aa(lp4504
S'large'
p4505
aI2251
aa(lp4506
S'small'
p4507
aI2252
aa(lp4508
S'study'
p4509
aI2253
aa(lp4510
S'disused'
p4511
aI2254
aa(lp4512
S'20th'
p4513
aI2255
aa(lp4514
S'programme'
p4515
aI2256
aa(lp4516
S'abbreviated'
p4517
aI2257
aa(lp4518
S'ten'
p4519
aI2258
aa(lp4520
S'sync'
p4521
aI2259
aa(lp4522
S'past'
p4523
aI2260
aa(lp4524
S'discriminated'
p4525
aI2261
aa(lp4526
S'rate'
p4527
aI2262
aa(lp4528
S'titles'
p4529
aI2263
aa(lp4530
S'design'
p4531
aI2264
aa(lp4532
S'revolutionist'
p4533
aI2265
aa(lp4534
S'further'
p4535
aI2266
aa(lp4536
S'antimilitarism'
p4537
aI2267
aa(lp4538
S'anarchist-inspired'
p4539
aI2268
aa(lp4540
S'investment'
p4541
aI2269
aa(lp4542
S'pelloutier'
p4543
aI2270
aa(lp4544
S'conscience'
p4545
aI2271
aa(lp4546
S'what'
p4547
aI2272
aa(lp4548
S'abc'
p4549
aI2273
aa(lp4550
S'imported'
p4551
aI2274
aa(lp4552
S'clock'
p4553
aI2275
aa(lp4554
S'short-lived'
p4555
aI2276
aa(lp4556
S'deeply'
p4557
aI2277
aa(lp4558
S'section'
p4559
aI2278
aa(lp4560
S'localization'
p4561
aI2279
aa(lp4562
S'brief'
p4563
aI2280
aa(lp4564
S'emotions'
p4565
aI2281
aa(lp4566
S'onna'
p4567
aI2282
aa(lp4568
S'version'
p4569
aI2283
aa(lp4570
S'attitudes'
p4571
aI2284
aa(lp4572
S'abu'
p4573
aI2285
aa(lp4574
S'sh\xc5\x8djo'
p4575
aI2286
aa(lp4576
S'method'
p4577
aI2287
aa(lp4578
S'contrast'
p4579
aI2288
aa(lp4580
S'movement'
p4581
aI2289
aa(lp4582
S'opposition'
p4583
aI2290
aa(lp4584
S'turmoil'
p4585
aI2291
aa(lp4586
S'full'
p4587
aI2292
aa(lp4588
S'christian'
p4589
aI2293
aa(lp4590
S'estate'
p4591
aI2294
aa(lp4592
S'ranged'
p4593
aI2295
aa(lp4594
S'stages'
p4595
aI2296
aa(lp4596
S'empower'
p4597
aI2297
aa(lp4598
S'sybilla'
p4599
aI2298
aa(lp4600
S'component'
p4601
aI2299
aa(lp4602
S'answers'
p4603
aI2300
aa(lp4604
S'voltages'
p4605
aI2301
aa(lp4606
S'hours'
p4607
aI2302
aa(lp4608
S'tracks'
p4609
aI2303
aa(lp4610
S'minor'
p4611
aI2304
aa(lp4612
S'operating'
p4613
aI2305
aa(lp4614
S'andrews'
p4615
aI2306
aa(lp4616
S'augustinian'
p4617
aI2307
aa(lp4618
S'i.e'
p4619
aI2308
aa(lp4620
S'november'
p4621
aI2309
aa(lp4622
S'strong'
p4623
aI2310
aa(lp4624
S'equations'
p4625
aI2311
aa(lp4626
S'legend'
p4627
aI2312
aa(lp4628
S'nationalization'
p4629
aI2313
aa(lp4630
S'1848'
p4631
aI2314
aa(lp4632
S'plaisir'
p4633
aI2315
aa(lp4634
S'coru\xc3\xb1a'
p4635
aI2316
aa(lp4636
S'inspired'
p4637
aI2317
aa(lp4638
S'stretching'
p4639
aI2318
aa(lp4640
S'1845'
p4641
aI2319
aa(lp4642
S'1844'
p4643
aI2320
aa(lp4644
S'bisexual'
p4645
aI2321
aa(lp4646
S"mole's"
p4647
aI2322
aa(lp4648
S'amount'
p4649
aI2323
aa(lp4650
S'periodic'
p4651
aI2324
aa(lp4652
S'post-modernism'
p4653
aI2325
aa(lp4654
S'social'
p4655
aI2326
aa(lp4656
S'action'
p4657
aI2327
aa(lp4658
S'uniquely'
p4659
aI2328
aa(lp4660
S'electromechanical'
p4661
aI2329
aa(lp4662
S'via'
p4663
aI2330
aa(lp4664
S'shorthand'
p4665
aI2331
aa(lp4666
S'bethad'
p4667
aI2332
aa(lp4668
S'family'
p4669
aI2333
aa(lp4670
S'1946'
p4671
aI2334
aa(lp4672
S'enactment'
p4673
aI2335
aa(lp4674
S'monatte'
p4675
aI2336
aa(lp4676
S'communards'
p4677
aI2337
aa(lp4678
S'2000s'
p4679
aI2338
aa(lp4680
S'aimed'
p4681
aI2339
aa(lp4682
S'gunmen'
p4683
aI2340
aa(lp4684
S'japanimation'
p4685
aI2341
aa(lp4686
S'1905'
p4687
aI2342
aa(lp4688
S'coercion'
p4689
aI2343
aa(lp4690
S'1901'
p4691
aI2344
aa(lp4692
S'languages'
p4693
aI2345
aa(lp4694
S'eye'
p4695
aI2346
aa(lp4696
S'intense'
p4697
aI2347
aa(lp4698
S'spiritually'
p4699
aI2348
aa(lp4700
S'objectives'
p4701
aI2349
aa(lp4702
S'denominated'
p4703
aI2350
aa(lp4704
S'petroleum'
p4705
aI2351
aa(lp4706
S'two'
p4707
aI2352
aa(lp4708
S'governance'
p4709
aI2353
aa(lp4710
S'pearl'
p4711
aI2354
aa(lp4712
S'taken'
p4713
aI2355
aa(lp4714
S'ceyhan'
p4715
aI2356
aa(lp4716
S'entails'
p4717
aI2357
aa(lp4718
S'trabajo'
p4719
aI2358
aa(lp4720
S'more'
p4721
aI2359
aa(lp4722
S'thrown'
p4723
aI2360
aa(lp4724
S'anarchisms'
p4725
aI2361
aa(lp4726
S'engaged'
p4727
aI2362
aa(lp4728
S'company'
p4729
aI2363
aa(lp4730
S"bank's"
p4731
aI2364
aa(lp4732
S'\xe3\x82\xa2\xe3\x83\x8b\xe3\x83\xa1\xe3\x83\xbc\xe3\x82\xb7\xe3\x83\xa7\xe3\x83\xb3'
p4733
aI2365
aa(lp4734
S'tested'
p4735
aI2366
aa(lp4736
S'e.c'
p4737
aI2367
aa(lp4738
S'basically'
p4739
aI2368
aa(lp4740
S'broke'
p4741
aI2369
aa(lp4742
S'particular'
p4743
aI2370
aa(lp4744
S'known'
p4745
aI2371
aa(lp4746
S'foundations'
p4747
aI2372
aa(lp4748
S'factories'
p4749
aI2373
aa(lp4750
S'producing'
p4751
aI2374
aa(lp4752
S'suffered'
p4753
aI2375
aa(lp4754
S'chaplain'
p4755
aI2376
aa(lp4756
S'campbell-kelly'
p4757
aI2377
aa(lp4758
S'helped'
p4759
aI2378
aa(lp4760
S'none'
p4761
aI2379
aa(lp4762
S'enlightenment'
p4763
aI2380
aa(lp4764
S'debates'
p4765
aI2381
aa(lp4766
S'science'
p4767
aI2382
aa(lp4768
S'equation'
p4769
aI2383
aa(lp4770
S'e.g'
p4771
aI2384
aa(lp4772
S'contender'
p4773
aI2385
aa(lp4774
S'guards'
p4775
aI2386
aa(lp4776
S'remain'
p4777
aI2387
aa(lp4778
S'sudden'
p4779
aI2388
aa(lp4780
S'nine'
p4781
aI2389
aa(lp4782
S'v'
p4783
aI2390
aa(lp4784
S'pioneered'
p4785
aI2391
aa(lp4786
S'embrace'
p4787
aI2392
aa(lp4788
S'male'
p4789
aI2393
aa(lp4790
S'spontaneous'
p4791
aI2394
aa(lp4792
S'broad'
p4793
aI2395
aa(lp4794
S'history'
p4795
aI2396
aa(lp4796
S'mackay'
p4797
aI2397
aa(lp4798
S'stated'
p4799
aI2398
aa(lp4800
S'alba'
p4801
aI2399
aa(lp4802
S'share'
p4803
aI2400
aa(lp4804
S'accept'
p4805
aI2401
aa(lp4806
S'states'
p4807
aI2402
aa(lp4808
S'socar'
p4809
aI2403
aa(lp4810
S'fiercely'
p4811
aI2404
aa(lp4812
S'numbers'
p4813
aI2405
aa(lp4814
S'sense'
p4815
aI2406
aa(lp4816
S'libertarian'
p4817
aI2407
aa(lp4818
S'assassinated'
p4819
aI2408
aa(lp4820
S'lacks'
p4821
aI2409
aa(lp4822
S"stirner's"
p4823
aI2410
aa(lp4824
S'firmly'
p4825
aI2411
aa(lp4826
S'influenced'
p4827
aI2412
aa(lp4828
S'respective'
p4829
aI2413
aa(lp4830
S'english-language'
p4831
aI2414
aa(lp4832
S'court'
p4833
aI2415
aa(lp4834
S'goal'
p4835
aI2416
aa(lp4836
S'desperation'
p4837
aI2417
aa(lp4838
S'rather'
p4839
aI2418
aa(lp4840
S'acts'
p4841
aI2419
aa(lp4842
S'otaku'
p4843
aI2420
aa(lp4844
S'glowing'
p4845
aI2421
aa(lp4846
S'occasionally'
p4847
aI2422
aa(lp4848
S'individualistic'
p4849
aI2423
aa(lp4850
S'breton'
p4851
aI2424
aa(lp4852
S'influences'
p4853
aI2425
aa(lp4854
S'speeding'
p4855
aI2426
aa(lp4856
S'iso'
p4857
aI2427
aa(lp4858
S'bit'
p4859
aI2428
aa(lp4860
S'additions/subtractions'
p4861
aI2429
aa(lp4862
S'simplicity'
p4863
aI2430
aa(lp4864
S'lightbearer'
p4865
aI2431
aa(lp4866
S'intended'
p4867
aI2432
aa(lp4868
S'appanage'
p4869
aI2433
aa(lp4870
S'subversive'
p4871
aI2434
aa(lp4872
S'uprising'
p4873
aI2435
aa(lp4874
S'portmanteau'
p4875
aI2436
aa(lp4876
S'dwarfed'
p4877
aI2437
aa(lp4878
S'sophistication'
p4879
aI2438
aa(lp4880
S'reflect'
p4881
aI2439
aa(lp4882
S'replace'
p4883
aI2440
aa(lp4884
S'tries'
p4885
aI2441
aa(lp4886
S'amparo'
p4887
aI2442
aa(lp4888
S'adventure'
p4889
aI2443
aa(lp4890
S'horizontal'
p4891
aI2444
aa(lp4892
S'derives'
p4893
aI2445
aa(lp4894
S'response'
p4895
aI2446
aa(lp4896
S'malevolent'
p4897
aI2447
aa(lp4898
S'a'
p4899
aI2448
aa(lp4900
S'short'
p4901
aI2449
aa(lp4902
S'280-299'
p4903
aI2450
aa(lp4904
S'susan'
p4905
aI2451
aa(lp4906
S'cooperatives'
p4907
aI2452
aa(lp4908
S'onto'
p4909
aI2453
aa(lp4910
S'register'
p4911
aI2454
aa(lp4912
S'overnight'
p4913
aI2455
aa(lp4914
S'climaxed'
p4915
aI2456
aa(lp4916
S'ego'
p4917
aI2457
aa(lp4918
S'fundamental'
p4919
aI2458
aa(lp4920
S'media'
p4921
aI2459
aa(lp4922
S'banks'
p4923
aI2460
aa(lp4924
S'pleasure'
p4925
aI2461
aa(lp4926
S'54,9'
p4927
aI2462
aa(lp4928
S'lasting'
p4929
aI2463
aa(lp4930
S'playing'
p4931
aI2464
aa(lp4932
S'tolstoy'
p4933
aI2465
aa(lp4934
S'mexican'
p4935
aI2466
aa(lp4936
S'help'
p4937
aI2467
aa(lp4938
S'hierarchy'
p4939
aI2468
aa(lp4940
S'developed'
p4941
aI2469
aa(lp4942
S'mass-produced'
p4943
aI2470
aa(lp4944
S'stays'
p4945
aI2471
aa(lp4946
S'azerbaijan'
p4947
aI2472
aa(lp4948
S'setback'
p4949
aI2473
aa(lp4950
S'trade'
p4951
aI2474
aa(lp4952
S'held'
p4953
aI2475
aa(lp4954
S'scots'
p4955
aI2476
aa(lp4956
S'through'
p4957
aI2477
aa(lp4958
S'4'
p4959
aI2478
aa(lp4960
S'committed'
p4961
aI2479
aa(lp4962
S"marx's"
p4963
aI2480
aa(lp4964
S'existence'
p4965
aI2481
aa(lp4966
S'suffer'
p4967
aI2482
aa(lp4968
S'its'
p4969
aI2483
aa(lp4970
S'roots'
p4971
aI2484
aa(lp4972
S'style'
p4973
aI2485
aa(lp4974
S'comedic'
p4975
aI2486
aa(lp4976
S'20'
p4977
aI2487
aa(lp4978
S'21'
p4979
aI2488
aa(lp4980
S'23'
p4981
aI2489
aa(lp4982
S"azerbaijan's"
p4983
aI2490
aa(lp4984
S'grubacic'
p4985
aI2491
aa(lp4986
S'28'
p4987
aI2492
aa(lp4988
S'blurring'
p4989
aI2493
aa(lp4990
S'abbey'
p4991
aI2494
aa(lp4992
S'ricardo'
p4993
aI2495
aa(lp4994
S'late'
p4995
aI2496
aa(lp4996
S'wilhelm'
p4997
aI2497
aa(lp4998
S'systems'
p4999
aI2498
aa(lp5000
S'powers'
p5001
aI2499
aa(lp5002
S'radical'
p5003
aI2500
aa(lp5004
S'stephen'
p5005
aI2501
aa(lp5006
S'followers'
p5007
aI2502
aa(lp5008
S'argentina'
p5009
aI2503
aa(lp5010
S'might'
p5011
aI2504
aa(lp5012
S'ally'
p5013
aI2505
aa(lp5014
S'post-war'
p5015
aI2506
aa(lp5016
S'good'
p5017
aI2507
aa(lp5018
S'motivated'
p5019
aI2508
aa(lp5020
S'yo'
p5021
aI2509
aa(lp5022
S'seeking'
p5023
aI2510
aa(lp5024
S'subtitled'
p5025
aI2511
aa(lp5026
S'cel'
p5027
aI2512
aa(lp5028
S'reciprocally'
p5029
aI2513
aa(lp5030
S'panning'
p5031
aI2514
aa(lp5032
S'anglo-norman'
p5033
aI2515
aa(lp5034
S'onfray'
p5035
aI2516
aa(lp5036
S'offensives'
p5037
aI2517
aa(lp5038
S'compound'
p5039
aI2518
aa(lp5040
S'communities'
p5041
aI2519
aa(lp5042
S'ace'
p5043
aI2520
aa(lp5044
S'expropriations'
p5045
aI2521
aa(lp5046
S'1130s'
p5047
aI2522
aa(lp5048
S'association'
p5049
aI2523
aa(lp5050
S'instructions'
p5051
aI2524
aa(lp5052
S'industrially'
p5053
aI2525
aa(lp5054
S'exiles'
p5055
aI2526
aa(lp5056
S'frequented'
p5057
aI2527
aa(lp5058
S'imprisoned'
p5059
aI2528
aa(lp5060
S'fully'
p5061
aI2529
aa(lp5062
S'decimal'
p5063
aI2530
aa(lp5064
S'presented'
p5065
aI2531
aa(lp5066
S'mochinaga'
p5067
aI2532
aa(lp5068
S'40mm'
p5069
aI2533
aa(lp5070
S'labeling'
p5071
aI2534
aa(lp5072
S'capability'
p5073
aI2535
aa(lp5074
S'blackboards'
p5075
aI2536
aa(lp5076
S'token'
p5077
aI2537
aa(lp5078
S'habits'
p5079
aI2538
aa(lp5080
S'th\xc3\xa9orie'
p5081
aI2539
aa(lp5082
S'found'
p5083
aI2540
aa(lp5084
S'sponsorship'
p5085
aI2541
aa(lp5086
S'$1.10'
p5087
aI2542
aa(lp5088
S'intolerable'
p5089
aI2543
aa(lp5090
S'characterized'
p5091
aI2544
aa(lp5092
S'referred'
p5093
aI2545
aa(lp5094
S'heavy'
p5095
aI2546
aa(lp5096
S'camaraderie'
p5097
aI2547
aa(lp5098
S'england'
p5099
aI2548
aa(lp5100
S'another'
p5101
aI2549
aa(lp5102
S'formulate'
p5103
aI2550
aa(lp5104
S'conflicting'
p5105
aI2551
aa(lp5106
S'generation'
p5107
aI2552
aa(lp5108
S'energy'
p5109
aI2553
aa(lp5110
S'mid-20th'
p5111
aI2554
aa(lp5112
S'idea'
p5113
aI2555
aa(lp5114
S'novatore'
p5115
aI2556
aa(lp5116
S'police'
p5117
aI2557
aa(lp5118
S'extended'
p5119
aI2558
aa(lp5120
S'gu\xc3\xa0rdia'
p5121
aI2559
aa(lp5122
S'annually'
p5123
aI2560
aa(lp5124
S'operation'
p5125
aI2561
aa(lp5126
S'beyond'
p5127
aI2562
aa(lp5128
S'anarchy'
p5129
aI2563
aa(lp5130
S'standard'
p5131
aI2564
aa(lp5132
S'repressive'
p5133
aI2565
aa(lp5134
S'funding'
p5135
aI2566
aa(lp5136
S'p'
p5137
aI2567
aa(lp5138
S'mauchly'
p5139
aI2568
aa(lp5140
S'robert'
p5141
aI2569
aa(lp5142
S'since'
p5143
aI2570
aa(lp5144
S'otogi'
p5145
aI2571
aa(lp5146
S'cornelissen'
p5147
aI2572
aa(lp5148
S'research'
p5149
aI2573
aa(lp5150
S'acting'
p5151
aI2574
aa(lp5152
S'lucifer'
p5153
aI2575
aa(lp5154
S'health'
p5155
aI2576
aa(lp5156
S'7'
p5157
aI2577
aa(lp5158
S'26.4%'
p5159
aI2578
aa(lp5160
S'liberty"...\xc2\xa0the'
p5161
aI2579
aa(lp5162
S'fled'
p5163
aI2580
aa(lp5164
S"truda's"
p5165
aI2581
aa(lp5166
S'benjamin'
p5167
aI2582
aa(lp5168
S'locally'
p5169
aI2583
aa(lp5170
S'disobedience'
p5171
aI2584
aa(lp5172
S'wales'
p5173
aI2585
aa(lp5174
S'risen'
p5175
aI2586
aa(lp5176
S'34.6%'
p5177
aI2587
aa(lp5178
S'wine-making'
p5179
aI2588
aa(lp5180
S'production-sharing'
p5181
aI2589
aa(lp5182
S'1920s'
p5183
aI2590
aa(lp5184
S'sparked'
p5185
aI2591
aa(lp5186
S'tetsujin'
p5187
aI2592
aa(lp5188
S'mikhail'
p5189
aI2593
aa(lp5190
S'reason'
p5191
aI2594
aa(lp5192
S'base'
p5193
aI2595
aa(lp5194
S'chaluim'
p5195
aI2596
aa(lp5196
S'auerbach'
p5197
aI2597
aa(lp5198
S'members'
p5199
aI2598
aa(lp5200
S'organising'
p5201
aI2599
aa(lp5202
S'put'
p5203
aI2600
aa(lp5204
S'electrostatically'
p5205
aI2601
aa(lp5206
S'earliest'
p5207
aI2602
aa(lp5208
S'beginning'
p5209
aI2603
aa(lp5210
S'generate'
p5211
aI2604
aa(lp5212
S'anarchos'
p5213
aI2605
aa(lp5214
S'revolutionary'
p5215
aI2606
aa(lp5216
S'definition'
p5217
aI2607
aa(lp5218
S'owners'
p5219
aI2608
aa(lp5220
S'situations'
p5221
aI2609
aa(lp5222
S'anarcho-capitalism'
p5223
aI2610
aa(lp5224
S'launch'
p5225
aI2611
aa(lp5226
S'worth'
p5227
aI2612
aa(lp5228
S'computers'
p5229
aI2613
aa(lp5230
S'terrible'
p5231
aI2614
aa(lp5232
S"year's"
p5233
aI2615
aa(lp5234
S'instigation'
p5235
aI2616
aa(lp5236
S'american'
p5237
aI2617
aa(lp5238
S'wither'
p5239
aI2618
aa(lp5240
S'w'
p5241
aI2619
aa(lp5242
S'embraced'
p5243
aI2620
aa(lp5244
S'castle'
p5245
aI2621
aa(lp5246
S'exhibited'
p5247
aI2622
aa(lp5248
S'serves'
p5249
aI2623
aa(lp5250
S'copper'
p5251
aI2624
aa(lp5252
S'major'
p5253
aI2625
aa(lp5254
S'50\xc2\xa0million'
p5255
aI2626
aa(lp5256
S'ammon'
p5257
aI2627
aa(lp5258
S'upper'
p5259
aI2628
aa(lp5260
S'girls'
p5261
aI2629
aa(lp5262
S'costume'
p5263
aI2630
aa(lp5264
S'number'
p5265
aI2631
aa(lp5266
S'shounen'
p5267
aI2632
aa(lp5268
S'well-known'
p5269
aI2633
aa(lp5270
S'utilized'
p5271
aI2634
aa(lp5272
S'1872'
p5273
aI2635
aa(lp5274
S'1873'
p5275
aI2636
aa(lp5276
S'1870'
p5277
aI2637
aa(lp5278
S'1871'
p5279
aI2638
aa(lp5280
S'kobe'
p5281
aI2639
aa(lp5282
S"yokoyama's"
p5283
aI2640
aa(lp5284
S'fiction'
p5285
aI2641
aa(lp5286
S'causing'
p5287
aI2642
aa(lp5288
S'agrarian'
p5289
aI2643
aa(lp5290
S'take'
p5291
aI2644
aa(lp5292
S'militant'
p5293
aI2645
aa(lp5294
S'differ'
p5295
aI2646
aa(lp5296
S'heads'
p5297
aI2647
aa(lp5298
S'isolated'
p5299
aI2648
aa(lp5300
S'leading'
p5301
aI2649
aa(lp5302
S'voltairine'
p5303
aI2650
aa(lp5304
S'least'
p5305
aI2651
aa(lp5306
S'lobby'
p5307
aI2652
aa(lp5308
S'player'
p5309
aI2653
aa(lp5310
S'belongs'
p5311
aI2654
aa(lp5312
S'saint'
p5313
aI2655
aa(lp5314
S'fought'
p5315
aI2656
aa(lp5316
S'hundred'
p5317
aI2657
aa(lp5318
S"1860's"
p5319
aI2658
aa(lp5320
S'store'
p5321
aI2659
aa(lp5322
S'numbered'
p5323
aI2660
aa(lp5324
S'passed'
p5325
aI2661
aa(lp5326
S'relationship'
p5327
aI2662
aa(lp5328
S'behind'
p5329
aI2663
aa(lp5330
S'1919'
p5331
aI2664
aa(lp5332
S'part'
p5333
aI2665
aa(lp5334
S'bower'
p5335
aI2666
aa(lp5336
S"movement's"
p5337
aI2667
aa(lp5338
S'leaderless'
p5339
aI2668
aa(lp5340
S'authors'
p5341
aI2669
aa(lp5342
S'1911'
p5343
aI2670
aa(lp5344
S'1910'
p5345
aI2671
aa(lp5346
S'believe'
p5347
aI2672
aa(lp5348
S'memorializing'
p5349
aI2673
aa(lp5350
S'1914'
p5351
aI2674
aa(lp5352
S'1917'
p5353
aI2675
aa(lp5354
S'reflection'
p5355
aI2676
aa(lp5356
S'king'
p5357
aI2677
aa(lp5358
S'grew'
p5359
aI2678
aa(lp5360
S'70.5%'
p5361
aI2679
aa(lp5362
S'inuyasha'
p5363
aI2680
aa(lp5364
S'potatoes'
p5365
aI2681
aa(lp5366
S'double'
p5367
aI2682
aa(lp5368
S'instruction'
p5369
aI2683
aa(lp5370
S"japan's"
p5371
aI2684
aa(lp5372
S'vocal'
p5373
aI2685
aa(lp5374
S'scandinavian'
p5375
aI2686
aa(lp5376
S'spirited'
p5377
aI2687
aa(lp5378
S'harman'
p5379
aI2688
aa(lp5380
S'strathclyde'
p5381
aI2689
aa(lp5382
S'bohemian'
p5383
aI2690
aa(lp5384
S'marriage'
p5385
aI2691
aa(lp5386
S'truda'
p5387
aI2692
aa(lp5388
S'treated'
p5389
aI2693
aa(lp5390
S'motivation'
p5391
aI2694
aa(lp5392
S'cronykil'
p5393
aI2695
aa(lp5394
S'cuthbert'
p5395
aI2696
aa(lp5396
S'surrealist'
p5397
aI2697
aa(lp5398
S'durham'
p5399
aI2698
aa(lp5400
S'imports'
p5401
aI2699
aa(lp5402
S'bavarian'
p5403
aI2700
aa(lp5404
S'alongside'
p5405
aI2701
aa(lp5406
S'organisations'
p5407
aI2702
aa(lp5408
S'greenwich'
p5409
aI2703
aa(lp5410
S'substantial'
p5411
aI2704
aa(lp5412
S'servitude'
p5413
aI2705
aa(lp5414
S'concentration'
p5415
aI2706
aa(lp5416
S'karl'
p5417
aI2707
aa(lp5418
S'mountain'
p5419
aI2708
aa(lp5420
S'cgt'
p5421
aI2709
aa(lp5422
S'u.s'
p5423
aI2710
aa(lp5424
S'built'
p5425
aI2711
aa(lp5426
S'wages'
p5427
aI2712
aa(lp5428
S'scotland'
p5429
aI2713
aa(lp5430
S'officers'
p5431
aI2714
aa(lp5432
S'heterosexual'
p5433
aI2715
aa(lp5434
S'also'
p5435
aI2716
aa(lp5436
S'find'
p5437
aI2717
aa(lp5438
S'internal'
p5439
aI2718
aa(lp5440
S'equaled'
p5441
aI2719
aa(lp5442
S'build'
p5443
aI2720
aa(lp5444
S'caliphate'
p5445
aI2721
aa(lp5446
S'kawamoto'
p5447
aI2722
aa(lp5448
S'finding'
p5449
aI2723
aa(lp5450
S'camillo'
p5451
aI2724
aa(lp5452
S'maintain'
p5453
aI2725
aa(lp5454
S'latin'
p5455
aI2726
aa(lp5456
S'7%'
p5457
aI2727
aa(lp5458
S'experienced'
p5459
aI2728
aa(lp5460
S'turkish'
p5461
aI2729
aa(lp5462
S'goldman'
p5463
aI2730
aa(lp5464
S'measures'
p5465
aI2731
aa(lp5466
S'chart'
p5467
aI2732
aa(lp5468
S'breaking'
p5469
aI2733
aa(lp5470
S'm\xc3\xa1el'
p5471
aI2734
aa(lp5472
S"worker's"
p5473
aI2735
aa(lp5474
S'most'
p5475
aI2736
aa(lp5476
S'experiences'
p5477
aI2737
aa(lp5478
S'significant'
p5479
aI2738
aa(lp5480
S'undertaken'
p5481
aI2739
aa(lp5482
S'services'
p5483
aI2740
aa(lp5484
S'accepting'
p5485
aI2741
aa(lp5486
S'boycotting'
p5487
aI2742
aa(lp5488
S'margall'
p5489
aI2743
aa(lp5490
S'measured'
p5491
aI2744
aa(lp5492
S'self-governed'
p5493
aI2745
aa(lp5494
S'equatorial'
p5495
aI2746
aa(lp5496
S'storyboarding'
p5497
aI2747
aa(lp5498
S'strikebreakers'
p5499
aI2748
aa(lp5500
S'mobile'
p5501
aI2749
aa(lp5502
S'clear'
p5503
aI2750
aa(lp5504
S'popularity'
p5505
aI2751
aa(lp5506
S'cover'
p5507
aI2752
aa(lp5508
S'traditional'
p5509
aI2753
aa(lp5510
S'satirical'
p5511
aI2754
aa(lp5512
S'organise'
p5513
aI2755
aa(lp5514
S'artistic'
p5515
aI2756
aa(lp5516
S'self-managing'
p5517
aI2757
aa(lp5518
S'charged'
p5519
aI2758
aa(lp5520
S'physics'
p5521
aI2759
aa(lp5522
S'institutions'
p5523
aI2760
aa(lp5524
S'sector'
p5525
aI2761
aa(lp5526
S'post-anarchism'
p5527
aI2762
aa(lp5528
S'ghibli'
p5529
aI2763
aa(lp5530
S'particularly'
p5531
aI2764
aa(lp5532
S'phenomenon'
p5533
aI2765
aa(lp5534
S"edgar's"
p5535
aI2766
aa(lp5536
S'celebrities'
p5537
aI2767
aa(lp5538
S'collectives'
p5539
aI2768
aa(lp5540
S"wyntoun's"
p5541
aI2769
aa(lp5542
S'relation'
p5543
aI2770
aa(lp5544
S'jean-jacques'
p5545
aI2771
aa(lp5546
S'entity'
p5547
aI2772
aa(lp5548
S'se'
p5549
aI2773
aa(lp5550
S'naftalan'
p5551
aI2774
aa(lp5552
S'networks'
p5553
aI2775
aa(lp5554
S'murata'
p5555
aI2776
aa(lp5556
S'occupation'
p5557
aI2777
aa(lp5558
S'impact'
p5559
aI2778
aa(lp5560
S'giant'
p5561
aI2779
aa(lp5562
S'nevertheless'
p5563
aI2780
aa(lp5564
S'duncan'
p5565
aI2781
aa(lp5566
S'justice'
p5567
aI2782
aa(lp5568
S'unrealistic'
p5569
aI2783
aa(lp5570
S'heavily'
p5571
aI2784
aa(lp5572
S'distributed'
p5573
aI2785
aa(lp5574
S'anim\xc3\xa9'
p5575
aI2786
aa(lp5576
S'anti-birth'
p5577
aI2787
aa(lp5578
S'failed'
p5579
aI2788
aa(lp5580
S'nobur\xc5\x8d'
p5581
aI2789
aa(lp5582
S'dysfunctional'
p5583
aI2790
aa(lp5584
S'criticising'
p5585
aI2791
aa(lp5586
S'naturalist'
p5587
aI2792
aa(lp5588
S'8'
p5589
aI2793
aa(lp5590
S'moses'
p5591
aI2794
aa(lp5592
S'mainichi'
p5593
aI2795
aa(lp5594
S'special-purpose'
p5595
aI2796
aa(lp5596
S'his'
p5597
aI2797
aa(lp5598
S'founding'
p5599
aI2798
aa(lp5600
S'strongholds'
p5601
aI2799
aa(lp5602
S'meanwhile'
p5603
aI2800
aa(lp5604
S'mutualist'
p5605
aI2801
aa(lp5606
S'secular'
p5607
aI2802
aa(lp5608
S'emirs'
p5609
aI2803
aa(lp5610
S'cheaper'
p5611
aI2804
aa(lp5612
S'mutualism'
p5613
aI2805
aa(lp5614
S'famous'
p5615
aI2806
aa(lp5616
S'anarcha-feminists'
p5617
aI2807
aa(lp5618
S'b'
p5619
aI2808
aa(lp5620
S'ferrer'
p5621
aI2809
aa(lp5622
S'fastest'
p5623
aI2810
aa(lp5624
S'theft'
p5625
aI2811
aa(lp5626
S'basement'
p5627
aI2812
aa(lp5628
S'during'
p5629
aI2813
aa(lp5630
S'fund\xe2\x80\x99'
p5631
aI2814
aa(lp5632
S'him'
p5633
aI2815
aa(lp5634
S'alexander'
p5635
aI2816
aa(lp5636
S'appeal'
p5637
aI2817
aa(lp5638
S'left-wing'
p5639
aI2818
aa(lp5640
S'progressive'
p5641
aI2819
aa(lp5642
S'nicknamed'
p5643
aI2820
aa(lp5644
S'poitras'
p5645
aI2821
aa(lp5646
S'stirling'
p5647
aI2822
aa(lp5648
S'marmaray'
p5649
aI2823
aa(lp5650
S'banking'
p5651
aI2824
aa(lp5652
S'safeguarding'
p5653
aI2825
aa(lp5654
S'common'
p5655
aI2826
aa(lp5656
S'activity'
p5657
aI2827
aa(lp5658
S'obscure'
p5659
aI2828
aa(lp5660
S'wrote'
p5661
aI2829
aa(lp5662
S'1817\xe2\x80\x931862'
p5663
aI2830
aa(lp5664
S'seventeen'
p5665
aI2831
aa(lp5666
S'set'
p5667
aI2832
aa(lp5668
S'art'
p5669
aI2833
aa(lp5670
S'hennacy'
p5671
aI2834
aa(lp5672
S'september'
p5673
aI2835
aa(lp5674
S'achieved'
p5675
aI2836
aa(lp5676
S'activists'
p5677
aI2837
aa(lp5678
S'melancholy'
p5679
aI2838
aa(lp5680
S'scenes'
p5681
aI2839
aa(lp5682
S'achieves'
p5683
aI2840
aa(lp5684
S'culture'
p5685
aI2841
aa(lp5686
S'see'
p5687
aI2842
aa(lp5688
S'individual'
p5689
aI2843
aa(lp5690
S'are'
p5691
aI2844
aa(lp5692
S'sea'
p5693
aI2845
aa(lp5694
S'seo'
p5695
aI2846
aa(lp5696
S'pi'
p5697
aI2847
aa(lp5698
S'precursors'
p5699
aI2848
aa(lp5700
S'paul'
p5701
aI2849
aa(lp5702
S'romances'
p5703
aI2850
aa(lp5704
S'youth'
p5705
aI2851
aa(lp5706
S'thurgot'
p5707
aI2852
aa(lp5708
S'cosplay'
p5709
aI2853
aa(lp5710
S'spirits'
p5711
aI2854
aa(lp5712
S'mononoke'
p5713
aI2855
aa(lp5714
S'guinea'
p5715
aI2856
aa(lp5716
S'currently'
p5717
aI2857
aa(lp5718
S'electoral'
p5719
aI2858
aa(lp5720
S'petair'
p5721
aI2859
aa(lp5722
S'fans'
p5723
aI2860
aa(lp5724
S'won'
p5725
aI2861
aa(lp5726
S'various'
p5727
aI2862
aa(lp5728
S'changeable'
p5729
aI2863
aa(lp5730
S'regicides'
p5731
aI2864
aa(lp5732
S'contrary'
p5733
aI2865
aa(lp5734
S'cutout'
p5735
aI2866
aa(lp5736
S'nestor'
p5737
aI2867
aa(lp5738
S'numerous'
p5739
aI2868
aa(lp5740
S'prince'
p5741
aI2869
aa(lp5742
S'available'
p5743
aI2870
aa(lp5744
S'muslim'
p5745
aI2871
aa(lp5746
S'recently'
p5747
aI2872
aa(lp5748
S'creating'
p5749
aI2873
aa(lp5750
S'essay'
p5751
aI2874
aa(lp5752
S'initially'
p5753
aI2875
aa(lp5754
S'arises'
p5755
aI2876
aa(lp5756
S'attention'
p5757
aI2877
aa(lp5758
S'general-purpose'
p5759
aI2878
aa(lp5760
S'untouched'
p5761
aI2879
aa(lp5762
S"berry's"
p5763
aI2880
aa(lp5764
S'incident'
p5765
aI2881
aa(lp5766
S'ranked'
p5767
aI2882
aa(lp5768
S'dunfermline'
p5769
aI2883
aa(lp5770
S'premise'
p5771
aI2884
aa(lp5772
S'genre'
p5773
aI2885
aa(lp5774
S"company's"
p5775
aI2886
aa(lp5776
S'renminbi'
p5777
aI2887
aa(lp5778
S'glorification'
p5779
aI2888
aa(lp5780
S'both'
p5781
aI2889
aa(lp5782
S'c'
p5783
aI2890
aa(lp5784
S'last'
p5785
aI2891
aa(lp5786
S'diogenes'
p5787
aI2892
aa(lp5788
S'influential'
p5789
aI2893
aa(lp5790
S'solely'
p5791
aI2894
aa(lp5792
S'annual'
p5793
aI2895
aa(lp5794
S'foreign'
p5795
aI2896
aa(lp5796
S'became'
p5797
aI2897
aa(lp5798
S'long-term'
p5799
aI2898
aa(lp5800
S'anti-war'
p5801
aI2899
aa(lp5802
S'whole'
p5803
aI2900
aa(lp5804
S'experimental'
p5805
aI2901
aa(lp5806
S'insurance'
p5807
aI2902
aa(lp5808
S'lev'
p5809
aI2903
aa(lp5810
S'point'
p5811
aI2904
aa(lp5812
S'simple'
p5813
aI2905
aa(lp5814
S'loan'
p5815
aI2906
aa(lp5816
S'address'
p5817
aI2907
aa(lp5818
S'ravages'
p5819
aI2908
aa(lp5820
S'community'
p5821
aI2909
aa(lp5822
S'pamphlet'
p5823
aI2910
aa(lp5824
S'simply'
p5825
aI2911
aa(lp5826
S'church'
p5827
aI2912
aa(lp5828
S'volunteered'
p5829
aI2913
aa(lp5830
S'throughout'
p5831
aI2914
aa(lp5832
S'persecuted'
p5833
aI2915
aa(lp5834
S'horticulture'
p5835
aI2916
aa(lp5836
S'described'
p5837
aI2917
aa(lp5838
S'publishing'
p5839
aI2918
aa(lp5840
S'incomes'
p5841
aI2919
aa(lp5842
S'novel.:'
p5843
aI2920
aa(lp5844
S'create'
p5845
aI2921
aa(lp5846
S'acceptance'
p5847
aI2922
aa(lp5848
S'political'
p5849
aI2923
aa(lp5850
S'due'
p5851
aI2924
aa(lp5852
S'mikey'
p5853
aI2925
aa(lp5854
S'strategy'
p5855
aI2926
aa(lp5856
S'whom'
p5857
aI2927
aa(lp5858
S'secret'
p5859
aI2928
aa(lp5860
S'gwynedd'
p5861
aI2929
aa(lp5862
S'complicated'
p5863
aI2930
aa(lp5864
S'pg'
p5865
aI2931
aa(lp5866
S'ireland'
p5867
aI2932
aa(lp5868
S'collected'
p5869
aI2933
aa(lp5870
S'anti-globalisation'
p5871
aI2934
aa(lp5872
S'territory'
p5873
aI2935
aa(lp5874
S'walter'
p5875
aI2936
aa(lp5876
S'1950s'
p5877
aI2937
aa(lp5878
S'fire'
p5879
aI2938
aa(lp5880
S'umanita'
p5881
aI2939
aa(lp5882
S'gas'
p5883
aI2940
aa(lp5884
S'resister'
p5885
aI2941
aa(lp5886
S'fund'
p5887
aI2942
aa(lp5888
S'vaguely'
p5889
aI2943
aa(lp5890
S'bottlers'
p5891
aI2944
aa(lp5892
S'representative'
p5893
aI2945
aa(lp5894
S'systematic'
p5895
aI2946
aa(lp5896
S'receive'
p5897
aI2947
aa(lp5898
S'1868'
p5899
aI2948
aa(lp5900
S'deepwater'
p5901
aI2949
aa(lp5902
S'rupture'
p5903
aI2950
aa(lp5904
S'patriarchy'
p5905
aI2951
aa(lp5906
S'scottish'
p5907
aI2952
aa(lp5908
S'georgia'
p5909
aI2953
aa(lp5910
S'politician'
p5911
aI2954
aa(lp5912
S'socialist'
p5913
aI2955
aa(lp5914
S'expanded'
p5915
aI2956
aa(lp5916
S'anti-worker'
p5917
aI2957
aa(lp5918
S'budget'
p5919
aI2958
aa(lp5920
S'evaluated'
p5921
aI2959
aa(lp5922
S"chicago's"
p5923
aI2960
aa(lp5924
S'waqf'
p5925
aI2961
aa(lp5926
S'pace'
p5927
aI2962
aa(lp5928
S'while'
p5929
aI2963
aa(lp5930
S'socialism'
p5931
aI2964
aa(lp5932
S'replaced'
p5933
aI2965
aa(lp5934
S'error'
p5935
aI2966
aa(lp5936
S'animated'
p5937
aI2967
aa(lp5938
S'landauer'
p5939
aI2968
aa(lp5940
S'shortened'
p5941
aI2969
aa(lp5942
S'underground'
p5943
aI2970
aa(lp5944
S'costly'
p5945
aI2971
aa(lp5946
S'century'
p5947
aI2972
aa(lp5948
S'backing'
p5949
aI2973
aa(lp5950
S'inverters'
p5951
aI2974
aa(lp5952
S'drawbacks'
p5953
aI2975
aa(lp5954
S'rulers'
p5955
aI2976
aa(lp5956
S'itself'
p5957
aI2977
aa(lp5958
S'owing'
p5959
aI2978
aa(lp5960
S'yoshiyuki'
p5961
aI2979
aa(lp5962
S'ready'
p5963
aI2980
aa(lp5964
S'rid'
p5965
aI2981
aa(lp5966
S'currents'
p5967
aI2982
aa(lp5968
S'predominates'
p5969
aI2983
aa(lp5970
S'italy'
p5971
aI2984
aa(lp5972
S'grant'
p5973
aI2985
aa(lp5974
S'centralisation'
p5975
aI2986
aa(lp5976
S'bellegarrigue'
p5977
aI2987
aa(lp5978
S'ideologies'
p5979
aI2988
aa(lp5980
S'anti-dogmatic'
p5981
aI2989
aa(lp5982
S'discourse'
p5983
aI2990
aa(lp5984
S'emphasize'
p5985
aI2991
aa(lp5986
S'widely'
p5987
aI2992
aa(lp5988
S'9'
p5989
aI2993
aa(lp5990
S'resulting'
p5991
aI2994
aa(lp5992
S'shah'
p5993
aI2995
aa(lp5994
S'conflict'
p5995
aI2996
aa(lp5996
S'higher'
p5997
aI2997
aa(lp5998
S'development'
p5999
aI2998
aa(lp6000
S'commune'
p6001
aI2999
aa(lp6002
S'used'
p6003
aI3000
aa(lp6004
S'temporary'
p6005
aI3001
aa(lp6006
S'collective'
p6007
aI3002
aa(lp6008
S'restraint'
p6009
aI3003
aa(lp6010
S'island'
p6011
aI3004
aa(lp6012
S'negotiate'
p6013
aI3005
aa(lp6014
S'flows'
p6015
aI3006
aa(lp6016
S'virginia'
p6017
aI3007
aa(lp6018
S'viewing'
p6019
aI3008
aa(lp6020
S'levels'
p6021
aI3009
aa(lp6022
S'federaci\xc3\xb3n'
p6023
aI3010
aa(lp6024
S'user'
p6025
aI3011
aa(lp6026
S'indefinite'
p6027
aI3012
aa(lp6028
S'genuine'
p6029
aI3013
aa(lp6030
S'yuan'
p6031
aI3014
aa(lp6032
S'tobacco'
p6033
aI3015
aa(lp6034
S'infamous'
p6035
aI3016
aa(lp6036
S'recent'
p6037
aI3017
aa(lp6038
S'stateless'
p6039
aI3018
aa(lp6040
S'lower'
p6041
aI3019
aa(lp6042
S'suppliers'
p6043
aI3020
aa(lp6044
S'makes'
p6045
aI3021
aa(lp6046
S'magnus'
p6047
aI3022
aa(lp6048
S'1.6\xc2\xa0km'
p6049
aI3023
aa(lp6050
S'spent'
p6051
aI3024
aa(lp6052
S'analysis'
p6053
aI3025
aa(lp6054
S'theology'
p6055
aI3026
aa(lp6056
S'sports'
p6057
aI3027
aa(lp6058
S'person'
p6059
aI3028
aa(lp6060
S'122mm'
p6061
aI3029
aa(lp6062
S'inflation'
p6063
aI3030
aa(lp6064
S'$10,000'
p6065
aI3031
aa(lp6066
S'convenient'
p6067
aI3032
aa(lp6068
S'swiss'
p6069
aI3033
aa(lp6070
S'entry'
p6071
aI3034
aa(lp6072
S'dark'
p6073
aI3035
aa(lp6074
S'stating'
p6075
aI3036
aa(lp6076
S'1107'
p6077
aI3037
aa(lp6078
S'historians'
p6079
aI3038
aa(lp6080
S'coup'
p6081
aI3039
aa(lp6082
S'jingyan'
p6083
aI3040
aa(lp6084
S'1967'
p6085
aI3041
aa(lp6086
S'collectivism'
p6087
aI3042
aa(lp6088
S'-'
p6089
aI3043
aa(lp6090
S'styled'
p6091
aI3044
aa(lp6092
S'collectivise'
p6093
aI3045
aa(lp6094
S'all-star'
p6095
aI3046
aa(lp6096
S'quarters'
p6097
aI3047
aa(lp6098
S'abbreviation'
p6099
aI3048
aa(lp6100
S'shape'
p6101
aI3049
aa(lp6102
S'ryner'
p6103
aI3050
aa(lp6104
S'distanced'
p6105
aI3051
aa(lp6106
S'using'
p6107
aI3052
aa(lp6108
S'talk'
p6109
aI3053
aa(lp6110
S'alternative'
p6111
aI3054
aa(lp6112
S'collectivist'
p6113
aI3055
aa(lp6114
S'reitzel'
p6115
aI3056
aa(lp6116
S'wage'
p6117
aI3057
aa(lp6118
S'abstention'
p6119
aI3058
aa(lp6120
S'anarcho-syndicalist'
p6121
aI3059
aa(lp6122
S'veganism'
p6123
aI3060
aa(lp6124
S'1078'
p6125
aI3061
aa(lp6126
S'majority'
p6127
aI3062
aa(lp6128
S'informal'
p6129
aI3063
aa(lp6130
S'workers'
p6131
aI3064
aa(lp6132
S'deprived'
p6133
aI3065
aa(lp6134
S'mutualist\xe2\x80\x93'
p6135
aI3066
aa(lp6136
S'exclusively'
p6137
aI3067
aa(lp6138
S'apparently'
p6139
aI3068
aa(lp6140
S'source'
p6141
aI3069
aa(lp6142
S'labour'
p6143
aI3070
aa(lp6144
S'location'
p6145
aI3071
aa(lp6146
S'1917\xe2\x80\x9323'
p6147
aI3072
aa(lp6148
S'input'
p6149
aI3073
aa(lp6150
S'anarcho-syndicalism'
p6151
aI3074
aa(lp6152
S'associations'
p6153
aI3075
aa(lp6154
S'customers'
p6155
aI3076
aa(lp6156
S"zuse's"
p6157
aI3077
aa(lp6158
S'march'
p6159
aI3078
aa(lp6160
S'lacking'
p6161
aI3079
aa(lp6162
S'format'
p6163
aI3080
aa(lp6164
S"ferrer's"
p6165
aI3081
aa(lp6166
S'big'
p6167
aI3082
aa(lp6168
S'couple'
p6169
aI3083
aa(lp6170
S'advocate'
p6171
aI3084
aa(lp6172
S'hayao'
p6173
aI3085
aa(lp6174
S'judgement'
p6175
aI3086
aa(lp6176
S'catalan'
p6177
aI3087
aa(lp6178
S'moods'
p6179
aI3088
aa(lp6180
S'emma'
p6181
aI3089
aa(lp6182
S'emergence'
p6183
aI3090
aa(lp6184
S'projects'
p6185
aI3091
aa(lp6186
S'like'
p6187
aI3092
aa(lp6188
S'75th'
p6189
aI3093
aa(lp6190
S'modifications'
p6191
aI3094
aa(lp6192
S'democratically'
p6193
aI3095
aa(lp6194
S'lost'
p6195
aI3096
aa(lp6196
S'follows'
p6197
aI3097
aa(lp6198
S'incidental'
p6199
aI3098
aa(lp6200
S'communications'
p6201
aI3099
aa(lp6202
S'individuals'
p6203
aI3100
aa(lp6204
S'popular'
p6205
aI3101
aa(lp6206
S'-3%'
p6207
aI3102
aa(lp6208
S'essential'
p6209
aI3103
aa(lp6210
S'terminology'
p6211
aI3104
aa(lp6212
S'talkie'
p6213
aI3105
aa(lp6214
S'caspian'
p6215
aI3106
aa(lp6216
S'often'
p6217
aI3107
aa(lp6218
S'creation'
p6219
aI3108
aa(lp6220
S'some'
p6221
aI3109
aa(lp6222
S'back'
p6223
aI3110
aa(lp6224
S'11-tube'
p6225
aI3111
aa(lp6226
S'medievalism'
p6227
aI3112
aa(lp6228
S'martial'
p6229
aI3113
aa(lp6230
S'strongest'
p6231
aI3114
aa(lp6232
S'economic'
p6233
aI3115
aa(lp6234
S'examples'
p6235
aI3116
aa(lp6236
S'kenz\xc5\x8d'
p6237
aI3117
aa(lp6238
S'trade-union'
p6239
aI3118
aa(lp6240
S'pronounced'
p6241
aI3119
aa(lp6242
S'scale'
p6243
aI3120
aa(lp6244
S'describing'
p6245
aI3121
aa(lp6246
S'\xe2\x80\x98mental'
p6247
aI3122
aa(lp6248
S'decision'
p6249
aI3123
aa(lp6250
S'transactions'
p6251
aI3124
aa(lp6252
S'per'
p6253
aI3125
aa(lp6254
S'isles'
p6255
aI3126
aa(lp6256
S'religion'
p6257
aI3127
aa(lp6258
S'pen'
p6259
aI3128
aa(lp6260
S'civilization'
p6261
aI3129
aa(lp6262
S'connecting'
p6263
aI3130
aa(lp6264
S'eliminate'
p6265
aI3131
aa(lp6266
S'conclusions'
p6267
aI3132
aa(lp6268
S'innovation'
p6269
aI3133
aa(lp6270
S'fragments'
p6271
aI3134
aa(lp6272
S'dating'
p6273
aI3135
aa(lp6274
S'bakcell'
p6275
aI3136
aa(lp6276
S'minimal'
p6277
aI3137
aa(lp6278
S'either'
p6279
aI3138
aa(lp6280
S'4.6%'
p6281
aI3139
aa(lp6282
S'varying'
p6283
aI3140
aa(lp6284
S'kropotkin'
p6285
aI3141
aa(lp6286
S'run'
p6287
aI3142
aa(lp6288
S'bc'
p6289
aI3143
aa(lp6290
S'300'
p6291
aI3144
aa(lp6292
S'bn'
p6293
aI3145
aa(lp6294
S'processing'
p6295
aI3146
aa(lp6296
S'continuing'
p6297
aI3147
aa(lp6298
S'fed'
p6299
aI3148
aa(lp6300
S'refused'
p6301
aI3149
aa(lp6302
S'step'
p6303
aI3150
aa(lp6304
S'bp'
p6305
aI3151
aa(lp6306
S'cinematic'
p6307
aI3152
aa(lp6308
S'-isma'
p6309
aI3153
aa(lp6310
S'served'
p6311
aI3154
aa(lp6312
S'$350,000'
p6313
aI3155
aa(lp6314
S'child-led'
p6315
aI3156
aa(lp6316
S'abroad'
p6317
aI3157
aa(lp6318
S'troops'
p6319
aI3158
aa(lp6320
S'unschooling'
p6321
aI3159
aa(lp6322
S'pipeline'
p6323
aI3160
aa(lp6324
S'goods'
p6325
aI3161
aa(lp6326
S'overmighty'
p6327
aI3162
aa(lp6328
S'blocs'
p6329
aI3163
aa(lp6330
S'plunder'
p6331
aI3164
aa(lp6332
S'exaggerated'
p6333
aI3165
aa(lp6334
S'nosebleed'
p6335
aI3166
aa(lp6336
S'britannica'
p6337
aI3167
aa(lp6338
S'bestseller'
p6339
aI3168
aa(lp6340
S'parma'
p6341
aI3169
aa(lp6342
S'breakup'
p6343
aI3170
aa(lp6344
S'classics'
p6345
aI3171
aa(lp6346
S'consequently'
p6347
aI3172
aa(lp6348
S'dwight'
p6349
aI3173
aa(lp6350
S'gamma'
p6351
aI3174
aa(lp6352
S'prices'
p6353
aI3175
aa(lp6354
S'seeing'
p6355
aI3176
aa(lp6356
S'real'
p6357
aI3177
aa(lp6358
S'into'
p6359
aI3178
aa(lp6360
S'roxburgh'
p6361
aI3179
aa(lp6362
S'because'
p6363
aI3180
aa(lp6364
S'counter-revolutionaries'
p6365
aI3181
aa(lp6366
S'primarily'
p6367
aI3182
aa(lp6368
S'frames'
p6369
aI3183
aa(lp6370
S'mangaka'
p6371
aI3184
aa(lp6372
S'grandniece'
p6373
aI3185
aa(lp6374
S'criticisms'
p6375
aI3186
aa(lp6376
S'prestige'
p6377
aI3187
aa(lp6378
S'computer'
p6379
aI3188
aa(lp6380
S'entitlement'
p6381
aI3189
aa(lp6382
S'few'
p6383
aI3190
aa(lp6384
S'self-governance'
p6385
aI3191
aa(lp6386
S'question'
p6387
aI3192
aa(lp6388
S'vigour'
p6389
aI3193
aa(lp6390
S'specifically'
p6391
aI3194
aa(lp6392
S'pronunciation'
p6393
aI3195
aa(lp6394
S'flowing'
p6395
aI3196
aa(lp6396
S'spas'
p6397
aI3197
aa(lp6398
S'morality'
p6399
aI3198
aa(lp6400
S'sections'
p6401
aI3199
aa(lp6402
S'vienna'
p6403
aI3200
aa(lp6404
S'regulator'
p6405
aI3201
aa(lp6406
S'harem'
p6407
aI3202
aa(lp6408
S'himself'
p6409
aI3203
aa(lp6410
S'elsewhere'
p6411
aI3204
aa(lp6412
S'yggdrasil'
p6413
aI3205
aa(lp6414
S'infinitive'
p6415
aI3206
aa(lp6416
S'criteria'
p6417
aI3207
aa(lp6418
S'boys'
p6419
aI3208
aa(lp6420
S'regenerative'
p6421
aI3209
aa(lp6422
S'russian'
p6423
aI3210
aa(lp6424
S'patronised'
p6425
aI3211
aa(lp6426
S'line'
p6427
aI3212
aa(lp6428
S'considerable'
p6429
aI3213
aa(lp6430
S'1892\xe2\x80\x931893'
p6431
aI3214
aa(lp6432
S'josiah'
p6433
aI3215
aa(lp6434
S'socialists'
p6435
aI3216
aa(lp6436
S'rejection'
p6437
aI3217
aa(lp6438
S'erich'
p6439
aI3218
aa(lp6440
S'characteristic'
p6441
aI3219
aa(lp6442
S'poststructuralist'
p6443
aI3220
aa(lp6444
S'up'
p6445
aI3221
aa(lp6446
S'us'
p6447
aI3222
aa(lp6448
S'cis'
p6449
aI3223
aa(lp6450
S'exploration'
p6451
aI3224
aa(lp6452
S'lesbianism'
p6453
aI3225
aa(lp6454
S'uk'
p6455
aI3226
aa(lp6456
S'aversion'
p6457
aI3227
aa(lp6458
S'highlight'
p6459
aI3228
aa(lp6460
S'autonomous'
p6461
aI3229
aa(lp6462
S'similar'
p6463
aI3230
aa(lp6464
S'called'
p6465
aI3231
aa(lp6466
S'polarised'
p6467
aI3232
aa(lp6468
S'nagai'
p6469
aI3233
aa(lp6470
S'm\xc3\xa1rmol'
p6471
aI3234
aa(lp6472
S'sometimes'
p6473
aI3235
aa(lp6474
S'associated'
p6475
aI3236
aa(lp6476
S'adults'
p6477
aI3237
aa(lp6478
S'delegate'
p6479
aI3238
aa(lp6480
S'defined'
p6481
aI3239
aa(lp6482
S'nighttime'
p6483
aI3240
aa(lp6484
S'influence'
p6485
aI3241
aa(lp6486
S'millay'
p6487
aI3242
aa(lp6488
S'eye-catching'
p6489
aI3243
aa(lp6490
S'coordinator'
p6491
aI3244
aa(lp6492
S'single'
p6493
aI3245
aa(lp6494
S'diverse'
p6495
aI3246
aa(lp6496
S'undertones'
p6497
aI3247
aa(lp6498
S'ecological'
p6499
aI3248
aa(lp6500
S'rally'
p6501
aI3249
aa(lp6502
S'1896'
p6503
aI3250
aa(lp6504
S'1897'
p6505
aI3251
aa(lp6506
S'nationalism'
p6507
aI3252
aa(lp6508
S'archbishop'
p6509
aI3253
aa(lp6510
S're-discovered'
p6511
aI3254
aa(lp6512
S'cotton'
p6513
aI3255
aa(lp6514
S'priory'
p6515
aI3256
aa(lp6516
S'image'
p6517
aI3257
aa(lp6518
S'peace'
p6519
aI3258
aa(lp6520
S'cohesive'
p6521
aI3259
aa(lp6522
S'invalid'
p6523
aI3260
aa(lp6524
S'nam'
p6525
aI3261
aa(lp6526
S'nar'
p6527
aI3262
aa(lp6528
S'grouped'
p6529
aI3263
aa(lp6530
S'conceptions'
p6531
aI3264
aa(lp6532
S'insurrectionary'
p6533
aI3265
aa(lp6534
S'income'
p6535
aI3266
aa(lp6536
S'department'
p6537
aI3267
aa(lp6538
S'shin'
p6539
aI3268
aa(lp6540
S'b/d'
p6541
aI3269
aa(lp6542
S'arithmetic'
p6543
aI3270
aa(lp6544
S'draw'
p6545
aI3271
aa(lp6546
S'elements'
p6547
aI3272
aa(lp6548
S'1889'
p6549
aI3273
aa(lp6550
S'users'
p6551
aI3274
aa(lp6552
S'calculating'
p6553
aI3275
aa(lp6554
S'gross'
p6555
aI3276
aa(lp6556
S'catel'
p6557
aI3277
aa(lp6558
S'backbone'
p6559
aI3278
aa(lp6560
S'problems'
p6561
aI3279
aa(lp6562
S'visits'
p6563
aI3280
aa(lp6564
S'prepared'
p6565
aI3281
aa(lp6566
S'william'
p6567
aI3282
aa(lp6568
S'meaning'
p6569
aI3283
aa(lp6570
S'tms'
p6571
aI3284
aa(lp6572
S'allowing'
p6573
aI3285
aa(lp6574
S'armed'
p6575
aI3286
aa(lp6576
S'dram'
p6577
aI3287
aa(lp6578
S'formal'
p6579
aI3288
aa(lp6580
S'luc\xc3\xada'
p6581
aI3289
aa(lp6582
S'critiqued'
p6583
aI3290
aa(lp6584
S'structure'
p6585
aI3291
aa(lp6586
S'bases'
p6587
aI3292
aa(lp6588
S'land'
p6589
aI3293
aa(lp6590
S'e'
p6591
aI3294
aa(lp6592
S'anything'
p6593
aI3295
aa(lp6594
S'zooming'
p6595
aI3296
aa(lp6596
S'established'
p6597
aI3297
aa(lp6598
S'required'
p6599
aI3298
aa(lp6600
S'backed'
p6601
aI3299
aa(lp6602
S'edward'
p6603
aI3300
aa(lp6604
S'2002'
p6605
aI3301
aa(lp6606
S'2003'
p6607
aI3302
aa(lp6608
S'depth'
p6609
aI3303
aa(lp6610
S'2001'
p6611
aI3304
aa(lp6612
S'2006'
p6613
aI3305
aa(lp6614
S'came'
p6615
aI3306
aa(lp6616
S'2005'
p6617
aI3307
aa(lp6618
S'walker'
p6619
aI3308
aa(lp6620
S'arkh\xc4\x93'
p6621
aI3309
aa(lp6622
S'2008'
p6623
aI3310
aa(lp6624
S'2009'
p6625
aI3311
aa(lp6626
S'comstockery'
p6627
aI3312
aa(lp6628
S'having'
p6629
aI3313
aa(lp6630
S'once'
p6631
aI3314
aa(lp6632
S'disenfranchisment'
p6633
aI3315
aa(lp6634
S'code'
p6635
aI3316
aa(lp6636
S'issued'
p6637
aI3317
aa(lp6638
S'amplifier'
p6639
aI3318
aa(lp6640
S'results'
p6641
aI3319
aa(lp6642
S'cobalt'
p6643
aI3320
aa(lp6644
S'gang'
p6645
aI3321
aa(lp6646
S"spain's"
p6647
aI3322
aa(lp6648
S'go'
p6649
aI3323
aa(lp6650
S'issues'
p6651
aI3324
aa(lp6652
S'inspire'
p6653
aI3325
aa(lp6654
S'pervert'
p6655
aI3326
aa(lp6656
S'simon'
p6657
aI3327
aa(lp6658
S'gold'
p6659
aI3328
aa(lp6660
S'uphold'
p6661
aI3329
aa(lp6662
S'us$100,000'
p6663
aI3330
aa(lp6664
S'effort'
p6665
aI3331
aa(lp6666
S'concerned'
p6667
aI3332
aa(lp6668
S'findl\xc3\xa1ich'
p6669
aI3333
aa(lp6670
S'young'
p6671
aI3334
aa(lp6672
S'mercedes'
p6673
aI3335
aa(lp6674
S'fascist'
p6675
aI3336
aa(lp6676
S'literary'
p6677
aI3337
aa(lp6678
S'attackers'
p6679
aI3338
aa(lp6680
S'nippon'
p6681
aI3339
aa(lp6682
S'constituted'
p6683
aI3340
aa(lp6684
S'masaoka'
p6685
aI3341
aa(lp6686
S'stable'
p6687
aI3342
aa(lp6688
S'include'
p6689
aI3343
aa(lp6690
S'dramatically'
p6691
aI3344
aa(lp6692
S'resources'
p6693
aI3345
aa(lp6694
S'nervousness'
p6695
aI3346
aa(lp6696
S'agents'
p6697
aI3347
aa(lp6698
S'mainstream'
p6699
aI3348
aa(lp6700
S'outside'
p6701
aI3349
aa(lp6702
S'1793'
p6703
aI3350
aa(lp6704
S'continues'
p6705
aI3351
aa(lp6706
S'agitating'
p6707
aI3352
aa(lp6708
S'wave'
p6709
aI3353
aa(lp6710
S'wishes'
p6711
aI3354
aa(lp6712
S'putting'
p6713
aI3355
aa(lp6714
S'mixing'
p6715
aI3356
aa(lp6716
S'continued'
p6717
aI3357
aa(lp6718
S'\xc5\x8cten'
p6719
aI3358
aa(lp6720
S'categories'
p6721
aI3359
aa(lp6722
S'cagliostro'
p6723
aI3360
aa(lp6724
S'entire'
p6725
aI3361
aa(lp6726
S'reclamation'
p6727
aI3362
aa(lp6728
S'compulsion'
p6729
aI3363
aa(lp6730
S'positions'
p6731
aI3364
aa(lp6732
S'attempts'
p6733
aI3365
aa(lp6734
S'fewer'
p6735
aI3366
aa(lp6736
S'snedecor'
p6737
aI3367
aa(lp6738
S'assignments'
p6739
aI3368
aa(lp6740
S'race'
p6741
aI3369
aa(lp6742
S'realization'
p6743
aI3370
aa(lp6744
S'pro-organisationalist'
p6745
aI3371
aa(lp6746
S'refer'
p6747
aI3372
aa(lp6748
S'1907'
p6749
aI3373
aa(lp6750
S'noted'
p6751
aI3374
aa(lp6752
S'related'
p6753
aI3375
aa(lp6754
S'concluded'
p6755
aI3376
aa(lp6756
S'ulster'
p6757
aI3377
aa(lp6758
S'picket'
p6759
aI3378
aa(lp6760
S'lulach'
p6761
aI3379
aa(lp6762
S'mediterranean'
p6763
aI3380
aa(lp6764
S'decreed'
p6765
aI3381
aa(lp6766
S'video'
p6767
aI3382
aa(lp6768
S'subtle'
p6769
aI3383
aa(lp6770
S'ardent'
p6771
aI3384
aa(lp6772
S'copenhagen'
p6773
aI3385
aa(lp6774
S'mussolini'
p6775
aI3386
aa(lp6776
S'obey'
p6777
aI3387
aa(lp6778
S'doctrines'
p6779
aI3388
aa(lp6780
S'index'
p6781
aI3389
aa(lp6782
S'formats'
p6783
aI3390
aa(lp6784
S'plays'
p6785
aI3391
aa(lp6786
S'business'
p6787
aI3392
aa(lp6788
S'chicago'
p6789
aI3393
aa(lp6790
S'giving'
p6791
aI3394
aa(lp6792
S'pipes'
p6793
aI3395
aa(lp6794
S'schedule'
p6795
aI3396
aa(lp6796
S'expressed'
p6797
aI3397
aa(lp6798
S'practices'
p6799
aI3398
aa(lp6800
S'cell'
p6801
aI3399
aa(lp6802
S'paying'
p6803
aI3400
aa(lp6804
S'19th'
p6805
aI3401
aa(lp6806
S'capital'
p6807
aI3402
aa(lp6808
S'robespierre'
p6809
aI3403
aa(lp6810
S"swim's"
p6811
aI3404
aa(lp6812
S'exercise'
p6813
aI3405
aa(lp6814
S'body'
p6815
aI3406
aa(lp6816
S'completion'
p6817
aI3407
aa(lp6818
S'4217'
p6819
aI3408
aa(lp6820
S'focuses'
p6821
aI3409
aa(lp6822
S'led'
p6823
aI3410
aa(lp6824
S'degree'
p6825
aI3411
aa(lp6826
S'exchange'
p6827
aI3412
aa(lp6828
S'respectively'
p6829
aI3413
aa(lp6830
S'gathered'
p6831
aI3414
aa(lp6832
S'commercial'
p6833
aI3415
aa(lp6834
S'gilles'
p6835
aI3416
aa(lp6836
S'leo'
p6837
aI3417
aa(lp6838
S'following'
p6839
aI3418
aa(lp6840
S'explore'
p6841
aI3419
aa(lp6842
S'let'
p6843
aI3420
aa(lp6844
S'separation'
p6845
aI3421
aa(lp6846
S'others'
p6847
aI3422
aa(lp6848
S'consideration'
p6849
aI3423
aa(lp6850
S'invented'
p6851
aI3424
aa(lp6852
S"momotaro's"
p6853
aI3425
aa(lp6854
S'extreme'
p6855
aI3426
aa(lp6856
S'ukraine'
p6857
aI3427
aa(lp6858
S'1933'
p6859
aI3428
aa(lp6860
S'great'
p6861
aI3429
aa(lp6862
S'medium-sized'
p6863
aI3430
aa(lp6864
S"anime's"
p6865
aI3431
aa(lp6866
S'technical'
p6867
aI3432
aa(lp6868
S'involved'
p6869
aI3433
aa(lp6870
S'31'
p6871
aI3434
aa(lp6872
S'30'
p6873
aI3435
aa(lp6874
S'35'
p6875
aI3436
aa(lp6876
S'products'
p6877
aI3437
aa(lp6878
S'rwby'
p6879
aI3438
aa(lp6880
S'defeat'
p6881
aI3439
aa(lp6882
S'implement'
p6883
aI3440
aa(lp6884
S'romande'
p6885
aI3441
aa(lp6886
S'anti-christian'
p6887
aI3442
aa(lp6888
S'honor'
p6889
aI3443
aa(lp6890
S'patents'
p6891
aI3444
aa(lp6892
S'composed'
p6893
aI3445
aa(lp6894
S'named'
p6895
aI3446
aa(lp6896
S'decentralized'
p6897
aI3447
aa(lp6898
S'stabilization'
p6899
aI3448
aa(lp6900
S'drums'
p6901
aI3449
aa(lp6902
S'win'
p6903
aI3450
aa(lp6904
S'1934'
p6905
aI3451
aa(lp6906
S'classrooms'
p6907
aI3452
aa(lp6908
S'private'
p6909
aI3453
aa(lp6910
S'surveyor'
p6911
aI3454
aa(lp6912
S'fordun'
p6913
aI3455
aa(lp6914
S'names'
p6915
aI3456
aa(lp6916
S'2,4'
p6917
aI3457
aa(lp6918
S'resolutions'
p6919
aI3458
aa(lp6920
S'sugar'
p6921
aI3459
aa(lp6922
S'2,000'
p6923
aI3460
aa(lp6924
S'use'
p6925
aI3461
aa(lp6926
S'1938'
p6927
aI3462
aa(lp6928
S'from'
p6929
aI3463
aa(lp6930
S'oilfields'
p6931
aI3464
aa(lp6932
S'&'
p6933
aI3465
aa(lp6934
S'remains'
p6935
aI3466
aa(lp6936
S'illegal'
p6937
aI3467
aa(lp6938
S'examined'
p6939
aI3468
aa(lp6940
S'pedagogical'
p6941
aI3469
aa(lp6942
S'next'
p6943
aI3470
aa(lp6944
S'symbol'
p6945
aI3471
aa(lp6946
S'blockades'
p6947
aI3472
aa(lp6948
S'depicted'
p6949
aI3473
aa(lp6950
S'camera'
p6951
aI3474
aa(lp6952
S'examination'
p6953
aI3475
aa(lp6954
S'reciprocity'
p6955
aI3476
aa(lp6956
S'themselves'
p6957
aI3477
aa(lp6958
S'stage'
p6959
aI3478
aa(lp6960
S'historically'
p6961
aI3479
aa(lp6962
S'possession'
p6963
aI3480
aa(lp6964
S'fansubs'
p6965
aI3481
aa(lp6966
S'formally'
p6967
aI3482
aa(lp6968
S'started'
p6969
aI3483
aa(lp6970
S'becomes'
p6971
aI3484
aa(lp6972
S'feminists'
p6973
aI3485
aa(lp6974
S'heir'
p6975
aI3486
aa(lp6976
S'occurred'
p6977
aI3487
aa(lp6978
S'steadfastly'
p6979
aI3488
aa(lp6980
S'opposing'
p6981
aI3489
aa(lp6982
S'labelled'
p6983
aI3490
aa(lp6984
S'sharply'
p6985
aI3491
aa(lp6986
S'sub-company'
p6987
aI3492
aa(lp6988
S'rare'
p6989
aI3493
aa(lp6990
S'iii'
p6991
aI3494
aa(lp6992
S'potential'
p6993
aI3495
aa(lp6994
S'women'
p6995
aI3496
aa(lp6996
S'story'
p6997
aI3497
aa(lp6998
S'depiction'
p6999
aI3498
aa(lp7000
S'account'
p7001
aI3499
aa(lp7002
S'soviet-allied'
p7003
aI3500
aa(lp7004
S'contests'
p7005
aI3501
aa(lp7006
S'piety'
p7007
aI3502
aa(lp7008
S'effectively'
p7009
aI3503
aa(lp7010
S'this'
p7011
aI3504
aa(lp7012
S'strides'
p7013
aI3505
aa(lp7014
S'when'
p7015
aI3506
aa(lp7016
S'pour'
p7017
aI3507
aa(lp7018
S'praise'
p7019
aI3508
aa(lp7020
S'parquet'
p7021
aI3509
aa(lp7022
S'industrial'
p7023
aI3510
aa(lp7024
S'fulfill'
p7025
aI3511
aa(lp7026
S'averages'
p7027
aI3512
aa(lp7028
S'performed'
p7029
aI3513
aa(lp7030
S'control'
p7031
aI3514
aa(lp7032
S'tap'
p7033
aI3515
aa(lp7034
S'classifications'
p7035
aI3516
aa(lp7036
S'links'
p7037
aI3517
aa(lp7038
S'providers'
p7039
aI3518
aa(lp7040
S'process'
p7041
aI3519
aa(lp7042
S'proportions'
p7043
aI3520
aa(lp7044
S'tax'
p7045
aI3521
aa(lp7046
S'tay'
p7047
aI3522
aa(lp7048
S'pieces'
p7049
aI3523
aa(lp7050
S'high'
p7051
aI3524
aa(lp7052
S'sought'
p7053
aI3525
aa(lp7054
S'reserves'
p7055
aI3526
aa(lp7056
S'bones'
p7057
aI3527
aa(lp7058
S"mauchly's"
p7059
aI3528
aa(lp7060
S'voice'
p7061
aI3529
aa(lp7062
S'overtly'
p7063
aI3530
aa(lp7064
S'ideology'
p7065
aI3531
aa(lp7066
S'educational'
p7067
aI3532
aa(lp7068
S'united'
p7069
aI3533
aa(lp7070
S'colorful'
p7071
aI3534
aa(lp7072
S'democracy'
p7073
aI3535
aa(lp7074
S'sword'
p7075
aI3536
aa(lp7076
S'destroying'
p7077
aI3537
aa(lp7078
S'holds'
p7079
aI3538
aa(lp7080
S'struggles'
p7081
aI3539
aa(lp7082
S'located'
p7083
aI3540
aa(lp7084
S'responsibility'
p7085
aI3541
aa(lp7086
S'instead'
p7087
aI3542
aa(lp7088
S'balance'
p7089
aI3543
aa(lp7090
S'comedy'
p7091
aI3544
aa(lp7092
S'panic'
p7093
aI3545
aa(lp7094
S'npl'
p7095
aI3546
aa(lp7096
S'-ism'
p7097
aI3547
aa(lp7098
S'neo-liberalism'
p7099
aI3548
aa(lp7100
S'attend'
p7101
aI3549
aa(lp7102
S'farm'
p7103
aI3550
aa(lp7104
S'watch'
p7105
aI3551
aa(lp7106
S'philosophy'
p7107
aI3552
aa(lp7108
S'perceive'
p7109
aI3553
aa(lp7110
S'abuse'
p7111
aI3554
aa(lp7112
S'unnaturally'
p7113
aI3555
aa(lp7114
S'militarism'
p7115
aI3556
aa(lp7116
S'1887'
p7117
aI3557
aa(lp7118
S'1886'
p7119
aI3558
aa(lp7120
S'solidarity'
p7121
aI3559
aa(lp7122
S'varied'
p7123
aI3560
aa(lp7124
S'crossroad'
p7125
aI3561
aa(lp7126
S'bombers'
p7127
aI3562
aa(lp7128
S'advocated'
p7129
aI3563
aa(lp7130
S'light'
p7131
aI3564
aa(lp7132
S'lines'
p7133
aI3565
aa(lp7134
S'robot'
p7135
aI3566
aa(lp7136
S'manganese'
p7137
aI3567
aa(lp7138
S'kodomo'
p7139
aI3568
aa(lp7140
S'emphasise'
p7141
aI3569
aa(lp7142
S'advocates'
p7143
aI3570
aa(lp7144
S'encyclopedia'
p7145
aI3571
aa(lp7146
S'allow'
p7147
aI3572
aa(lp7148
S'intellectuals'
p7149
aI3573
aa(lp7150
S'subsequently'
p7151
aI3574
aa(lp7152
S'800,000'
p7153
aI3575
aa(lp7154
S'counted'
p7155
aI3576
aa(lp7156
S'poor'
p7157
aI3577
aa(lp7158
S'closely'
p7159
aI3578
aa(lp7160
S'producer'
p7161
aI3579
aa(lp7162
S'move'
p7163
aI3580
aa(lp7164
S"king's"
p7165
aI3581
aa(lp7166
S'symbols'
p7167
aI3582
aa(lp7168
S'own'
p7169
aI3583
aa(lp7170
S'including'
p7171
aI3584
aa(lp7172
S'136'
p7173
aI3585
aa(lp7174
S'sindacale'
p7175
aI3586
aa(lp7176
S'free-thinker'
p7177
aI3587
aa(lp7178
S'agricultural'
p7179
aI3588
aa(lp7180
S'warren'
p7181
aI3589
aa(lp7182
S'perfect'
p7183
aI3590
aa(lp7184
S'revived'
p7185
aI3591
aa(lp7186
S'silk'
p7187
aI3592
aa(lp7188
S'azerfon'
p7189
aI3593
aa(lp7190
S'la'
p7191
aI3594
aa(lp7192
S'gatana'
p7193
aI3595
aa(lp7194
S'masses'
p7195
aI3596
aa(lp7196
S'ships'
p7197
aI3597
aa(lp7198
S'anti-nuclear'
p7199
aI3598
aa(lp7200
S'labor'
p7201
aI3599
aa(lp7202
S'permanent'
p7203
aI3600
aa(lp7204
S'degrees'
p7205
aI3601
aa(lp7206
S"malmesbury's"
p7207
aI3602
aa(lp7208
S'communication'
p7209
aI3603
aa(lp7210
S'total'
p7211
aI3604
aa(lp7212
S'derivative'
p7213
aI3605
aa(lp7214
S'societies'
p7215
aI3606
aa(lp7216
S'nagorno-karabakh'
p7217
aI3607
aa(lp7218
S'2010'
p7219
aI3608
aa(lp7220
S'2012'
p7221
aI3609
aa(lp7222
S'designs'
p7223
aI3610
aa(lp7224
S'campaigned'
p7225
aI3611
aa(lp7226
S'greater'
p7227
aI3612
aa(lp7228
S'camus'
p7229
aI3613
aa(lp7230
S'popularized'
p7231
aI3614
aa(lp7232
S'material'
p7233
aI3615
aa(lp7234
S'invitations'
p7235
aI3616
aa(lp7236
S'determined'
p7237
aI3617
aa(lp7238
S'ma\xc3\xadl'
p7239
aI3618
aa(lp7240
S'emphasises'
p7241
aI3619
aa(lp7242
S'documented'
p7243
aI3620
aa(lp7244
S'republican'
p7245
aI3621
aa(lp7246
S'cage'
p7247
aI3622
aa(lp7248
S'day'
p7249
aI3623
aa(lp7250
S'emotion'
p7251
aI3624
aa(lp7252
S'crass'
p7253
aI3625
aa(lp7254
S'imier'
p7255
aI3626
aa(lp7256
S'february'
p7257
aI3627
aa(lp7258
S'airports'
p7259
aI3628
aa(lp7260
S'profound'
p7261
aI3629
aa(lp7262
S'warned'
p7263
aI3630
aa(lp7264
S'university'
p7265
aI3631
aa(lp7266
S'traced'
p7267
aI3632
aa(lp7268
S'follow'
p7269
aI3633
aa(lp7270
S'betty'
p7271
aI3634
aa(lp7272
S'truth'
p7273
aI3635
aa(lp7274
S'disregard'
p7275
aI3636
aa(lp7276
S'accounts'
p7277
aI3637
aa(lp7278
S'traces'
p7279
aI3638
aa(lp7280
S'inverting'
p7281
aI3639
aa(lp7282
S'subset'
p7283
aI3640
aa(lp7284
S'studios'
p7285
aI3641
aa(lp7286
S'doing'
p7287
aI3642
aa(lp7288
S'baku-tbilisi-ceyhan'
p7289
aI3643
aa(lp7290
S'retaliation'
p7291
aI3644
aa(lp7292
S'society'
p7293
aI3645
aa(lp7294
S'books'
p7295
aI3646
aa(lp7296
S'measure'
p7297
aI3647
aa(lp7298
S'70%'
p7299
aI3648
aa(lp7300
S'80'
p7301
aI3649
aa(lp7302
S'sexual'
p7303
aI3650
aa(lp7304
S'special'
p7305
aI3651
aa(lp7306
S'out'
p7307
aI3652
aa(lp7308
S'9.3%'
p7309
aI3653
aa(lp7310
S'greene'
p7311
aI3654
aa(lp7312
S'pseudo-libertarianism'
p7313
aI3655
aa(lp7314
S'vcd'
p7315
aI3656
aa(lp7316
S'fundamentally'
p7317
aI3657
aa(lp7318
S'entertainment'
p7319
aI3658
aa(lp7320
S'defend'
p7321
aI3659
aa(lp7322
S'cyr\xc3\xa9aniques'
p7323
aI3660
aa(lp7324
S'rival'
p7325
aI3661
aa(lp7326
S'critics'
p7327
aI3662
aa(lp7328
S'etymology'
p7329
aI3663
aa(lp7330
S'activist'
p7331
aI3664
aa(lp7332
S'mangaha'
p7333
aI3665
aa(lp7334
S'depreciating'
p7335
aI3666
aa(lp7336
S'reformist'
p7337
aI3667
aa(lp7338
S'cause'
p7339
aI3668
aa(lp7340
S'integrated'
p7341
aI3669
aa(lp7342
S'announced'
p7343
aI3670
aa(lp7344
S"one's"
p7345
aI3671
aa(lp7346
S'arrested'
p7347
aI3672
aa(lp7348
S'wallpaper'
p7349
aI3673
aa(lp7350
S'undated'
p7351
aI3674
aa(lp7352
S'spot'
p7353
aI3675
aa(lp7354
S'delegates'
p7355
aI3676
aa(lp7356
S'release'
p7357
aI3677
aa(lp7358
S'approaches'
p7359
aI3678
aa(lp7360
S'york'
p7361
aI3679
aa(lp7362
S'regulatory'
p7363
aI3680
aa(lp7364
S'1790s'
p7365
aI3681
aa(lp7366
S'20,000'
p7367
aI3682
aa(lp7368
S'non-hierarchical'
p7369
aI3683
aa(lp7370
S'defining'
p7371
aI3684
aa(lp7372
S'dismantled'
p7373
aI3685
aa(lp7374
S'allies'
p7375
aI3686
aa(lp7376
S'islamic'
p7377
aI3687
aa(lp7378
S'dubbed'
p7379
aI3688
aa(lp7380
S'automatic'
p7381
aI3689
aa(lp7382
S'libertarianism'
p7383
aI3690
aa(lp7384
S'childless'
p7385
aI3691
aa(lp7386
S'membership'
p7387
aI3692
aa(lp7388
S'david'
p7389
aI3693
aa(lp7390
S'length'
p7391
aI3694
aa(lp7392
S'allied'
p7393
aI3695
aa(lp7394
S'confrontations'
p7395
aI3696
aa(lp7396
S'ltd'
p7397
aI3697
aa(lp7398
S'successor'
p7399
aI3698
aa(lp7400
S'distinguish'
p7401
aI3699
aa(lp7402
S'vegetables'
p7403
aI3700
aa(lp7404
S'south'
p7405
aI3701
aa(lp7406
S'isbn'
p7407
aI3702
aa(lp7408
S'suffix'
p7409
aI3703
aa(lp7410
S'endowments'
p7411
aI3704
aa(lp7412
S'dragon'
p7413
aI3705
aa(lp7414
S'stirnerists'
p7415
aI3706
aa(lp7416
S'powerful'
p7417
aI3707
aa(lp7418
S'jesus'
p7419
aI3708
aa(lp7420
S'exact'
p7421
aI3709
aa(lp7422
S'improving'
p7423
aI3710
aa(lp7424
S'neill'
p7425
aI3711
aa(lp7426
S'puppet'
p7427
aI3712
aa(lp7428
S'spots'
p7429
aI3713
aa(lp7430
S'proposing'
p7431
aI3714
aa(lp7432
S'ties'
p7433
aI3715
aa(lp7434
S'aztelekom'
p7435
aI3716
aa(lp7436
S'quality'
p7437
aI3717
aa(lp7438
S'management'
p7439
aI3718
aa(lp7440
S'publication'
p7441
aI3719
aa(lp7442
S'festival'
p7443
aI3720
aa(lp7444
S'unknown'
p7445
aI3721
aa(lp7446
S'creator'
p7447
aI3722
aa(lp7448
S'system'
p7449
aI3723
aa(lp7450
S'adopted'
p7451
aI3724
aa(lp7452
S'realistically'
p7453
aI3725
aa(lp7454
S'priority'
p7455
aI3726
aa(lp7456
S'their'
p7457
aI3727
aa(lp7458
S'attack'
p7459
aI3728
aa(lp7460
S'intermediate'
p7461
aI3729
aa(lp7462
S'1881'
p7463
aI3730
aa(lp7464
S'programmable'
p7465
aI3731
aa(lp7466
S'branches'
p7467
aI3732
aa(lp7468
S'final'
p7469
aI3733
aa(lp7470
S'circulate'
p7471
aI3734
aa(lp7472
S'interests'
p7473
aI3735
aa(lp7474
S'shell'
p7475
aI3736
aa(lp7476
S'shorts'
p7477
aI3737
aa(lp7478
S'academy'
p7479
aI3738
aa(lp7480
S'completed'
p7481
aI3739
aa(lp7482
S'electing'
p7483
aI3740
aa(lp7484
S'environmental'
p7485
aI3741
aa(lp7486
S'regards'
p7487
aI3742
aa(lp7488
S'cultural-critical'
p7489
aI3743
aa(lp7490
S'manifestation'
p7491
aI3744
aa(lp7492
S'natural'
p7493
aI3745
aa(lp7494
S'july'
p7495
aI3746
aa(lp7496
S'kilos'
p7497
aI3747
aa(lp7498
S'elite'
p7499
aI3748
aa(lp7500
S'haven'
p7501
aI3749
aa(lp7502
S'producers'
p7503
aI3750
aa(lp7504
S'gradual'
p7505
aI3751
aa(lp7506
S'succeeded'
p7507
aI3752
aa(lp7508
S'berkman'
p7509
aI3753
aa(lp7510
S'distinguishes'
p7511
aI3754
aa(lp7512
S'submitted'
p7513
aI3755
aa(lp7514
S'tommy'
p7515
aI3756
aa(lp7516
S'$2.74'
p7517
aI3757
aa(lp7518
S'sweden'
p7519
aI3758
aa(lp7520
S'defense'
p7521
aI3759
aa(lp7522
S'popularised'
p7523
aI3760
aa(lp7524
S'1,774\xc2\xa0kilometers'
p7525
aI3761
aa(lp7526
S'providing'
p7527
aI3762
aa(lp7528
S'distinguished'
p7529
aI3763
aa(lp7530
S'creditors'
p7531
aI3764
aa(lp7532
S'anthropologist'
p7533
aI3765
aa(lp7534
S'hairstyle'
p7535
aI3766
aa(lp7536
S'2014'
p7537
aI3767
aa(lp7538
S'clip'
p7539
aI3768
aa(lp7540
S'rules-based'
p7541
aI3769
aa(lp7542
S"tolstoy's"
p7543
aI3770
aa(lp7544
S'have'
p7545
aI3771
aa(lp7546
S'close'
p7547
aI3772
aa(lp7548
S'need'
p7549
aI3773
aa(lp7550
S'agronomy'
p7551
aI3774
aa(lp7552
S'handled'
p7553
aI3775
aa(lp7554
S'demonstration'
p7555
aI3776
aa(lp7556
S'intersecting'
p7557
aI3777
aa(lp7558
S'viewed'
p7559
aI3778
aa(lp7560
S'catholic'
p7561
aI3779
aa(lp7562
S'depict'
p7563
aI3780
aa(lp7564
S'angle'
p7565
aI3781
aa(lp7566
S'universit\xc3\xa0'
p7567
aI3782
aa(lp7568
S'scone'
p7569
aI3783
aa(lp7570
S'pursued'
p7571
aI3784
aa(lp7572
S'figureheads'
p7573
aI3785
aa(lp7574
S'able'
p7575
aI3786
aa(lp7576
S'mid'
p7577
aI3787
aa(lp7578
S'parks'
p7579
aI3788
aa(lp7580
S'poch'
p7581
aI3789
aa(lp7582
S'situationist'
p7583
aI3790
aa(lp7584
S'instance'
p7585
aI3791
aa(lp7586
S'concerns'
p7587
aI3792
aa(lp7588
S'hydrocarbon'
p7589
aI3793
aa(lp7590
S'tactic'
p7591
aI3794
aa(lp7592
S'so'
p7593
aI3795
aa(lp7594
S'holdings'
p7595
aI3796
aa(lp7596
S'subject'
p7597
aI3797
aa(lp7598
S'='
p7599
aI3798
aa(lp7600
S'rediscovered'
p7601
aI3799
aa(lp7602
S'worldwide'
p7603
aI3800
aa(lp7604
S'thinkers'
p7605
aI3801
aa(lp7606
S'icv2.com'
p7607
aI3802
aa(lp7608
S'who'
p7609
aI3803
aa(lp7610
S'dubs'
p7611
aI3804
aa(lp7612
S'procure'
p7613
aI3805
aa(lp7614
S'harmful'
p7615
aI3806
aa(lp7616
S'intentions'
p7617
aI3807
aa(lp7618
S'eight'
p7619
aI3808
aa(lp7620
S'but'
p7621
aI3809
aa(lp7622
S'brother-in-law'
p7623
aI3810
aa(lp7624
S'device'
p7625
aI3811
aa(lp7626
S'unione'
p7627
aI3812
aa(lp7628
S'class'
p7629
aI3813
aa(lp7630
S'volume'
p7631
aI3814
aa(lp7632
S"turing's"
p7633
aI3815
aa(lp7634
S'beets'
p7635
aI3816
aa(lp7636
S'neighboring'
p7637
aI3817
aa(lp7638
S'enthusiastic'
p7639
aI3818
aa(lp7640
S'once-off'
p7641
aI3819
aa(lp7642
S'c.n.t'
p7643
aI3820
aa(lp7644
S'tbilisi'
p7645
aI3821
aa(lp7646
S'pipe'
p7647
aI3822
aa(lp7648
S'capita'
p7649
aI3823
aa(lp7650
S'construction'
p7651
aI3824
aa(lp7652
S'mid-1980s'
p7653
aI3825
aa(lp7654
S'distinctive'
p7655
aI3826
aa(lp7656
S'constrain'
p7657
aI3827
aa(lp7658
S'normally'
p7659
aI3828
aa(lp7660
S'logical'
p7661
aI3829
aa(lp7662
S'fact'
p7663
aI3830
aa(lp7664
S'goals'
p7665
aI3831
aa(lp7666
S'son'
p7667
aI3832
aa(lp7668
S'affair'
p7669
aI3833
aa(lp7670
S'atmosphere'
p7671
aI3834
aa(lp7672
S'selection'
p7673
aI3835
aa(lp7674
S'75%'
p7675
aI3836
aa(lp7676
S'text'
p7677
aI3837
aa(lp7678
S'agreed'
p7679
aI3838
aa(lp7680
S'supported'
p7681
aI3839
aa(lp7682
S'centralized'
p7683
aI3840
aa(lp7684
S'bring'
p7685
aI3841
aa(lp7686
S'parliamentary'
p7687
aI3842
aa(lp7688
S'manchester'
p7689
aI3843
aa(lp7690
S'democrats'
p7691
aI3844
aa(lp7692
S'dorothy'
p7693
aI3845
aa(lp7694
S'asylum'
p7695
aI3846
aa(lp7696
S'trivial'
p7697
aI3847
aa(lp7698
S'debate'
p7699
aI3848
aa(lp7700
S'decade'
p7701
aI3849
aa(lp7702
S'staff'
p7703
aI3850
aa(lp7704
S'communism'
p7705
aI3851
aa(lp7706
S'based'
p7707
aI3852
aa(lp7708
S'knowledge'
p7709
aI3853
aa(lp7710
S'syndicalist'
p7711
aI3854
aa(lp7712
S'credited'
p7713
aI3855
aa(lp7714
S'unions'
p7715
aI3856
aa(lp7716
S'should'
p7717
aI3857
aa(lp7718
S'syndicalism'
p7719
aI3858
aa(lp7720
S'bombings'
p7721
aI3859
aa(lp7722
S'syndicalists'
p7723
aI3860
aa(lp7724
S'self-managed'
p7725
aI3861
aa(lp7726
S'alasdair'
p7727
aI3862
aa(lp7728
S'employed'
p7729
aI3863
aa(lp7730
S'communist'
p7731
aI3864
aa(lp7732
S'local'
p7733
aI3865
aa(lp7734
S'interested'
p7735
aI3866
aa(lp7736
S'achieve'
p7737
aI3867
aa(lp7738
S'meant'
p7739
aI3868
aa(lp7740
S'$760'
p7741
aI3869
aa(lp7742
S'insight'
p7743
aI3870
aa(lp7744
S'handle'
p7745
aI3871
aa(lp7746
S'cooperation'
p7747
aI3872
aa(lp7748
S'means'
p7749
aI3873
aa(lp7750
S'background'
p7751
aI3874
aa(lp7752
S'maritime'
p7753
aI3875
aa(lp7754
S'joint'
p7755
aI3876
aa(lp7756
S'burglars'
p7757
aI3877
aa(lp7758
S'ones'
p7759
aI3878
aa(lp7760
S'hagiographer'
p7761
aI3879
aa(lp7762
S'words'
p7763
aI3880
aa(lp7764
S'$160'
p7765
aI3881
aa(lp7766
S'compute'
p7767
aI3882
aa(lp7768
S'kong'
p7769
aI3883
aa(lp7770
S'kazakhstan'
p7771
aI3884
aa(lp7772
S'areas'
p7773
aI3885
aa(lp7774
S'produced'
p7775
aI3886
aa(lp7776
S'evolution'
p7777
aI3887
aa(lp7778
S'f\xc3\xa9d\xc3\xa9ration'
p7779
aI3888
aa(lp7780
S'pok\xc3\xa9mon'
p7781
aI3889
aa(lp7782
S'molybdenum'
p7783
aI3890
aa(lp7784
S'conditions'
p7785
aI3891
aa(lp7786
S'manats'
p7787
aI3892
aa(lp7788
S'she'
p7789
aI3893
aa(lp7790
S'wish'
p7791
aI3894
aa(lp7792
S'unfeasible'
p7793
aI3895
aa(lp7794
S'fixed'
p7795
aI3896
aa(lp7796
S'metaseries'
p7797
aI3897
aa(lp7798
S'generations'
p7799
aI3898
aa(lp7800
S'preach'
p7801
aI3899
aa(lp7802
S'cinematically'
p7803
aI3900
aa(lp7804
S'europe'
p7805
aI3901
aa(lp7806
S'official'
p7807
aI3902
aa(lp7808
S'btr'
p7809
aI3903
aa(lp7810
S'national'
p7811
aI3904
aa(lp7812
S'humans'
p7813
aI3905
aa(lp7814
S'we'
p7815
aI3906
aa(lp7816
S'yawning'
p7817
aI3907
aa(lp7818
S'argued'
p7819
aI3908
aa(lp7820
S'1872\xe2\x80\x931890'
p7821
aI3909
aa(lp7822
S'officials'
p7823
aI3910
aa(lp7824
S'winstanley'
p7825
aI3911
aa(lp7826
S'btc'
p7827
aI3912
aa(lp7828
S'converting'
p7829
aI3913
aa(lp7830
S'operated'
p7831
aI3914
aa(lp7832
S'azerbaijan\xe2\x80\x99s'
p7833
aI3915
aa(lp7834
S'closer'
p7835
aI3916
aa(lp7836
S'philadelphes'
p7837
aI3917
aa(lp7838
S'televised'
p7839
aI3918
aa(lp7840
S'imposition'
p7841
aI3919
aa(lp7842
S'reform'
p7843
aI3920
aa(lp7844
S'proletariat'
p7845
aI3921
aa(lp7846
S'arguably'
p7847
aI3922
aa(lp7848
S'ralph'
p7849
aI3923
aa(lp7850
S'tend'
p7851
aI3924
aa(lp7852
S'state'
p7853
aI3925
aa(lp7854
S'proof'
p7855
aI3926
aa(lp7856
S'crude'
p7857
aI3927
aa(lp7858
S'progress'
p7859
aI3928
aa(lp7860
S'lip'
p7861
aI3929
aa(lp7862
S'1890s'
p7863
aI3930
aa(lp7864
S'industries'
p7865
aI3931
aa(lp7866
S'ends'
p7867
aI3932
aa(lp7868
S'ability'
p7869
aI3933
aa(lp7870
S'spares'
p7871
aI3934
aa(lp7872
S'opening'
p7873
aI3935
aa(lp7874
S'importance'
p7875
aI3936
aa(lp7876
S'joy'
p7877
aI3937
aa(lp7878
S'ignorance'
p7879
aI3938
aa(lp7880
S'embarrassment'
p7881
aI3939
aa(lp7882
S'le'
p7883
aI3940
aa(lp7884
S'key'
p7885
aI3941
aa(lp7886
S'disproportionately'
p7887
aI3942
aa(lp7888
S'ames'
p7889
aI3943
aa(lp7890
S'amer'
p7891
aI3944
aa(lp7892
S'problem'
p7893
aI3945
aa(lp7894
S'before,<br>the'
p7895
aI3946
aa(lp7896
S'interpretations'
p7897
aI3947
aa(lp7898
S'eniac'
p7899
aI3948
aa(lp7900
S'instant'
p7901
aI3949
aa(lp7902
S'1642'
p7903
aI3950
aa(lp7904
S'freely'
p7905
aI3951
aa(lp7906
S'taking'
p7907
aI3952
aa(lp7908
S'1880s'
p7909
aI3953
aa(lp7910
S'equal'
p7911
aI3954
aa(lp7912
S'attributed'
p7913
aI3955
aa(lp7914
S'beliefs'
p7915
aI3956
aa(lp7916
S'april'
p7917
aI3957
aa(lp7918
S'manifestations'
p7919
aI3958
aa(lp7920
S'figures'
p7921
aI3959
aa(lp7922
S'sexes'
p7923
aI3960
aa(lp7924
S'tactical'
p7925
aI3961
aa(lp7926
S'attributes'
p7927
aI3962
aa(lp7928
S'self-assertion'
p7929
aI3963
aa(lp7930
S'kinds'
p7931
aI3964
aa(lp7932
S'extent'
p7933
aI3965
aa(lp7934
S'anti-capitalist'
p7935
aI3966
aa(lp7936
S'malcolm'
p7937
aI3967
aa(lp7938
S'disarmament'
p7939
aI3968
aa(lp7940
S'cf'
p7941
aI3969
aa(lp7942
S'cd'
p7943
aI3970
aa(lp7944
S'walt'
p7945
aI3971
aa(lp7946
S'shurkin'
p7947
aI3972
aa(lp7948
S'johann'
p7949
aI3973
aa(lp7950
S'congresses'
p7951
aI3974
aa(lp7952
S'sequences'
p7953
aI3975
aa(lp7954
S'coercive'
p7955
aI3976
aa(lp7956
S'respect'
p7957
aI3977
aa(lp7958
S'chromium'
p7959
aI3978
aa(lp7960
S'deniz'
p7961
aI3979
aa(lp7962
S'application'
p7963
aI3980
aa(lp7964
S'poem'
p7965
aI3981
aa(lp7966
S'8.5'
p7967
aI3982
aa(lp7968
S'nehir'
p7969
aI3983
aa(lp7970
S'addition'
p7971
aI3984
aa(lp7972
S'wills'
p7973
aI3985
aa(lp7974
S'cent'
p7975
aI3986
aa(lp7976
S'outlaws'
p7977
aI3987
aa(lp7978
S'liberals'
p7979
aI3988
aa(lp7980
S'viticulture'
p7981
aI3989
aa(lp7982
S'slowly'
p7983
aI3990
aa(lp7984
S'agreements'
p7985
aI3991
aa(lp7986
S'certain'
p7987
aI3992
aa(lp7988
S'poet'
p7989
aI3993
aa(lp7990
S'compatibility'
p7991
aI3994
aa(lp7992
S'improve'
p7993
aI3995
aa(lp7994
S'oxymoronic'
p7995
aI3996
aa(lp7996
S'define'
p7997
aI3997
aa(lp7998
S'homosexual'
p7999
aI3998
aa(lp8000
S'diversity'
p8001
aI3999
aa(lp8002
S'league'
p8003
aI4000
aa(lp8004
S'exchange-rate'
p8005
aI4001
aa(lp8006
S'rioting'
p8007
aI4002
aa(lp8008
S'sufficient'
p8009
aI4003
aa(lp8010
S'goddess'
p8011
aI4004
aa(lp8012
S'teviot'
p8013
aI4005
aa(lp8014
S'theorists'
p8015
aI4006
aa(lp8016
S'finished'
p8017
aI4007
aa(lp8018
S'graphics'
p8019
aI4008
aa(lp8020
S'panel'
p8021
aI4009
aa(lp8022
S'an'
p8023
aI4010
aa(lp8024
S'expounded'
p8025
aI4011
aa(lp8026
S'spain'
p8027
aI4012
aa(lp8028
S'journals'
p8029
aI4013
aa(lp8030
S'wood'
p8031
aI4014
aa(lp8032
S'novel'
p8033
aI4015
aa(lp8034
S'laser'
p8035
aI4016
aa(lp8036
S'abandoned'
p8037
aI4017
aa(lp8038
S'unlike'
p8039
aI4018
aa(lp8040
S'marches'
p8041
aI4019
aa(lp8042
S'2011'
p8043
aI4020
aa(lp8044
S'britain'
p8045
aI4021
aa(lp8046
S'value'
p8047
aI4022
aa(lp8048
S'promotes'
p8049
aI4023
aa(lp8050
S'will'
p8051
aI4024
aa(lp8052
S'volin'
p8053
aI4025
aa(lp8054
S'sebastien'
p8055
aI4026
aa(lp8056
S'promoted'
p8057
aI4027
aa(lp8058
S'medicinal'
p8059
aI4028
aa(lp8060
S'm\xc3\xbchsam'
p8061
aI4029
aa(lp8062
S'wyntoun'
p8063
aI4030
aa(lp8064
S'manually'
p8065
aI4031
aa(lp8066
S'almost'
p8067
aI4032
aa(lp8068
S'diversification'
p8069
aI4033
aa(lp8070
S'thus'
p8071
aI4034
aa(lp8072
S'workplaces'
p8073
aI4035
aa(lp8074
S'clearly'
p8075
aI4036
aa(lp8076
S'weighed'
p8077
aI4037
aa(lp8078
S'1894'
p8079
aI4038
aa(lp8080
S'popularly'
p8081
aI4039
aa(lp8082
S'audiences'
p8083
aI4040
aa(lp8084
S'against'
p8085
aI4041
aa(lp8086
S'dual'
p8087
aI4042
aa(lp8088
S'politics'
p8089
aI4043
aa(lp8090
S'claimed'
p8091
aI4044
aa(lp8092
S'petrograd'
p8093
aI4045
aa(lp8094
S'electro-mechanical'
p8095
aI4046
aa(lp8096
S'subtitling'
p8097
aI4047
aa(lp8098
S'perhaps'
p8099
aI4048
aa(lp8100
S'-\xce\xaf\xce\xb6\xce\xb5\xce\xb9\xce\xbd'
p8101
aI4049
aa(lp8102
S'began'
p8103
aI4050
aa(lp8104
S'administration'
p8105
aI4051
aa(lp8106
S'cross'
p8107
aI4052
aa(lp8108
S'member'
p8109
aI4053
aa(lp8110
S'parts'
p8111
aI4054
aa(lp8112
S'largest'
p8113
aI4055
aa(lp8114
S'eclectic'
p8115
aI4056
aa(lp8116
S'party'
p8117
aI4057
aa(lp8118
S'terrorism'
p8119
aI4058
aa(lp8120
S'outlined'
p8121
aI4059
aa(lp8122
S'difficult'
p8123
aI4060
aa(lp8124
S'1918\xe2\x80\x931919'
p8125
aI4061
aa(lp8126
S'experimented'
p8127
aI4062
aa(lp8128
S'practice'
p8129
aI4063
aa(lp8130
S'novels'
p8131
aI4064
aa(lp8132
S'conceived'
p8133
aI4065
aa(lp8134
S'upon'
p8135
aI4066
aa(lp8136
S'effect'
p8137
aI4067
aa(lp8138
S'armaments'
p8139
aI4068
aa(lp8140
S'paving'
p8141
aI4069
aa(lp8142
S'student'
p8143
aI4070
aa(lp8144
S'fierce'
p8145
aI4071
aa(lp8146
S'nation'
p8147
aI4072
aa(lp8148
S'scholars'
p8149
aI4073
aa(lp8150
S'identity'
p8151
aI4074
aa(lp8152
S'destruction'
p8153
aI4075
aa(lp8154
S'shin-chan'
p8155
aI4076
aa(lp8156
S'expense'
p8157
aI4077
aa(lp8158
S'center'
p8159
aI4078
aa(lp8160
S'hanifa'
p8161
aI4079
aa(lp8162
S'i'
p8163
aI4080
aa(lp8164
S'disappears'
p8165
aI4081
aa(lp8166
S'variety'
p8167
aI4082
aa(lp8168
S'well'
p8169
aI4083
aa(lp8170
S'thought'
p8171
aI4084
aa(lp8172
S'thorn'
p8173
aI4085
aa(lp8174
S'failures'
p8175
aI4086
aa(lp8176
S'command'
p8177
aI4087
aa(lp8178
S'vincent'
p8179
aI4088
aa(lp8180
S'aims'
p8181
aI4089
aa(lp8182
S'english'
p8183
aI4090
aa(lp8184
S'comparisons'
p8185
aI4091
aa(lp8186
S'creators'
p8187
aI4092
aa(lp8188
S'soviet'
p8189
aI4093
aa(lp8190
S'drawing'
p8191
aI4094
aa(lp8192
S'meet'
p8193
aI4095
aa(lp8194
S'rocker'
p8195
aI4096
aa(lp8196
S'brandenburg'
p8197
aI4097
aa(lp8198
S'less'
p8199
aI4098
aa(lp8200
S'increasingly'
p8201
aI4099
aa(lp8202
S'percent'
p8203
aI4100
aa(lp8204
S'1890'
p8205
aI4101
aa(lp8206
S'\xc5\x8cban'
p8207
aI4102
aa(lp8208
S'domestic'
p8209
aI4103
aa(lp8210
S'obtain'
p8211
aI4104
aa(lp8212
S'sources'
p8213
aI4105
aa(lp8214
S'stored'
p8215
aI4106
aa(lp8216
S'fishing'
p8217
aI4107
aa(lp8218
S'years'
p8219
aI4108
aa(lp8220
S'tone'
p8221
aI4109
aa(lp8222
S'tweeddale'
p8223
aI4110
aa(lp8224
S'graduate'
p8225
aI4111
aa(lp8226
S"bakunin's"
p8227
aI4112
aa(lp8228
S'unjust'
p8229
aI4113
aa(lp8230
S'rapid'
p8231
aI4114
aa(lp8232
S'katsud\xc5\x8d'
p8233
aI4115
aa(lp8234
S'10'
p8235
aI4116
aa(lp8236
S'field'
p8237
aI4117
aa(lp8238
S'reformer'
p8239
aI4118
aa(lp8240
S'headed'
p8241
aI4119
aa(lp8242
S'demographic'
p8243
aI4120
aa(lp8244
S'deposits'
p8245
aI4121
aa(lp8246
S'nacional'
p8247
aI4122
aa(lp8248
S'gainax'
p8249
aI4123
aa(lp8250
S'hastening'
p8251
aI4124
aa(lp8252
S'onwards'
p8253
aI4125
aa(lp8254
S'extends'
p8255
aI4126
aa(lp8256
S'attractive'
p8257
aI4127
aa(lp8258
S'usage'
p8259
aI4128
aa(lp8260
S'280'
p8261
aI4129
aa(lp8262
S'escuela'
p8263
aI4130
aa(lp8264
S'villagers'
p8265
aI4131
aa(lp8266
S'ought'
p8267
aI4132
aa(lp8268
S'characteristically'
p8269
aI4133
aa(lp8270
S'identical'
p8271
aI4134
aa(lp8272
S'eadmer'
p8273
aI4135
aa(lp8274
S'increased'
p8275
aI4136
aa(lp8276
S'myth'
p8277
aI4137
aa(lp8278
S'government'
p8279
aI4138
aa(lp8280
S'crushed'
p8281
aI4139
aa(lp8282
S'republics'
p8283
aI4140
aa(lp8284
S'fuji'
p8285
aI4141
aa(lp8286
S'malatesta'
p8287
aI4142
aa(lp8288
S'five'
p8289
aI4143
aa(lp8290
S'whatever'
p8291
aI4144
aa(lp8292
S'facial'
p8293
aI4145
aa(lp8294
S'mathematics'
p8295
aI4146
aa(lp8296
S'prominent'
p8297
aI4147
aa(lp8298
S'insert'
p8299
aI4148
aa(lp8300
S'necessary'
p8301
aI4149
aa(lp8302
S'georges'
p8303
aI4150
aa(lp8304
S'success'
p8305
aI4151
aa(lp8306
S'beno\xc3\xaet'
p8307
aI4152
aa(lp8308
S'vibrant'
p8309
aI4153
aa(lp8310
S'dictionaries'
p8311
aI4154
aa(lp8312
S'fernando'
p8313
aI4155
aa(lp8314
S'units'
p8315
aI4156
aa(lp8316
S'sized'
p8317
aI4157
aa(lp8318
S'subdivided'
p8319
aI4158
aa(lp8320
S'james'
p8321
aI4159
aa(lp8322
S'bolsheviks'
p8323
aI4160
aa(lp8324
S'become'
p8325
aI4161
aa(lp8326
S'repressed'
p8327
aI4162
aa(lp8328
S'works'
p8329
aI4163
aa(lp8330
S'blackshirts'
p8331
aI4164
aa(lp8332
S'inexperienced'
p8333
aI4165
aa(lp8334
S'replacement'
p8335
aI4166
aa(lp8336
S'parity'
p8337
aI4167
aa(lp8338
S'religiosity'
p8339
aI4168
aa(lp8340
S'classical'
p8341
aI4169
aa(lp8342
S'wholly'
p8343
aI4170
aa(lp8344
S'unsuccessful'
p8345
aI4171
aa(lp8346
S'phenomena'
p8347
aI4172
aa(lp8348
S'thief'
p8349
aI4173
aa(lp8350
S'authority'
p8351
aI4174
aa(lp8352
S'hair'
p8353
aI4175
aa(lp8354
S'growth'
p8355
aI4176
aa(lp8356
S'export'
p8357
aI4177
aa(lp8358
S'naturists'
p8359
aI4178
aa(lp8360
S'convey'
p8361
aI4179
aa(lp8362
S'home'
p8363
aI4180
aa(lp8364
S'peter'
p8365
aI4181
aa(lp8366
S'employment'
p8367
aI4182
aa(lp8368
S'transport'
p8369
aI4183
aa(lp8370
S'trust'
p8371
aI4184
aa(lp8372
S'focused'
p8373
aI4185
aa(lp8374
S'turkmenistan'
p8375
aI4186
aa(lp8376
S'gasc\xc3\xb3n'
p8377
aI4187
aa(lp8378
S'communes'
p8379
aI4188
aa(lp8380
S'corpse'
p8381
aI4189
aa(lp8382
S'japanese-style'
p8383
aI4190
aa(lp8384
S'gasification'
p8385
aI4191
aa(lp8386
S'philosopher'
p8387
aI4192
aa(lp8388
S'arteries'
p8389
aI4193
aa(lp8390
S'does'
p8391
aI4194
aa(lp8392
S'economical'
p8393
aI4195
aa(lp8394
S'bosses'
p8395
aI4196
aa(lp8396
S'leader'
p8397
aI4197
aa(lp8398
S'demonstrated'
p8399
aI4198
aa(lp8400
S'says'
p8401
aI4199
aa(lp8402
S'medieval'
p8403
aI4200
aa(lp8404
S'individualist'
p8405
aI4201
aa(lp8406
S'reaching'
p8407
aI4202
aa(lp8408
S'journal'
p8409
aI4203
aa(lp8410
S'monetary'
p8411
aI4204
aa(lp8412
S'propri\xc3\xa9t\xc3\xa9'
p8413
aI4205
aa(lp8414
S'crossing'
p8415
aI4206
aa(lp8416
S'murdered'
p8417
aI4207
aa(lp8418
S'variation'
p8419
aI4208
aa(lp8420
S'although'
p8421
aI4209
aa(lp8422
S'accompanied'
p8423
aI4210
aa(lp8424
S'fused'
p8425
aI4211
aa(lp8426
S'stalinist-led'
p8427
aI4212
aa(lp8428
S'leopold'
p8429
aI4213
aa(lp8430
S'teviotdale'
p8431
aI4214
aa(lp8432
S'individualism'
p8433
aI4215
aa(lp8434
S'296\xc2\xa0billion'
p8435
aI4216
aa(lp8436
S'about'
p8437
aI4217
aa(lp8438
S'blanquists'
p8439
aI4218
aa(lp8440
S'carried'
p8441
aI4219
aa(lp8442
S's\xc3\xa1nchez'
p8443
aI4220
aa(lp8444
S'column'
p8445
aI4221
aa(lp8446
S'freedom'
p8447
aI4222
aa(lp8448
S'gundam'
p8449
aI4223
aa(lp8450
S'sectarian'
p8451
aI4224
aa(lp8452
S'haymarket'
p8453
aI4225
aa(lp8454
S'surge'
p8455
aI4226
aa(lp8456
S'compatible'
p8457
aI4227
aa(lp8458
S'dependency'
p8459
aI4228
aa(lp8460
S'carries'
p8461
aI4229
aa(lp8462
S'anarcho-primitivism'
p8463
aI4230
aa(lp8464
S'half-brother'
p8465
aI4231
aa(lp8466
S'introduced'
p8467
aI4232
aa(lp8468
S'commonwealth'
p8469
aI4233
aa(lp8470
S'equally'
p8471
aI4234
aa(lp8472
S'pistols'
p8473
aI4235
aa(lp8474
S'previously'
p8475
aI4236
aa(lp8476
S'satire'
p8477
aI4237
aa(lp8478
S'emotive'
p8479
aI4238
aa(lp8480
S'criticised'
p8481
aI4239
aa(lp8482
S'battered'
p8483
aI4240
aa(lp8484
S'tiny'
p8485
aI4241
aa(lp8486
S'female'
p8487
aI4242
aa(lp8488
S'artists'
p8489
aI4243
aa(lp8490
S'roads'
p8491
aI4244
aa(lp8492
S'enslavement\xe2\x80\x99'
p8493
aI4245
aa(lp8494
S'0-631-17944-5'
p8495
aI4246
aa(lp8496
S'1987'
p8497
aI4247
aa(lp8498
S'armand'
p8499
aI4248
aa(lp8500
S'additional'
p8501
aI4249
aa(lp8502
S'adolescent'
p8503
aI4250
aa(lp8504
S'prospects'
p8505
aI4251
aa(lp8506
S'lagged'
p8507
aI4252
aa(lp8508
S'caviar'
p8509
aI4253
aa(lp8510
S'celebration'
p8511
aI4254
aa(lp8512
S'imperial'
p8513
aI4255
aa(lp8514
S'jewish'
p8515
aI4256
aa(lp8516
S'utopian'
p8517
aI4257
aa(lp8518
S'biggest'
p8519
aI4258
aa(lp8520
S'dynamite'
p8521
aI4259
aa(lp8522
S'anti-imperialism'
p8523
aI4260
aa(lp8524
S'function'
p8525
aI4261
aa(lp8526
S'north'
p8527
aI4262
aa(lp8528
S'interest'
p8529
aI4263
aa(lp8530
S'funds'
p8531
aI4264
aa(lp8532
S'brand'
p8533
aI4265
aa(lp8534
S'basic'
p8535
aI4266
aa(lp8536
S'overlapping'
p8537
aI4267
aa(lp8538
S'astro'
p8539
aI4268
aa(lp8540
S'privilege'
p8541
aI4269
aa(lp8542
S'repeated'
p8543
aI4270
aa(lp8544
S'hierarchical'
p8545
aI4271
aa(lp8546
S'gain'
p8547
aI4272
aa(lp8548
S'extra-budgetary'
p8549
aI4273
aa(lp8550
S'editing'
p8551
aI4274
aa(lp8552
S'basin'
p8553
aI4275
aa(lp8554
S'he'
p8555
aI4276
aa(lp8556
S'made'
p8557
aI4277
aa(lp8558
S'tactics'
p8559
aI4278
aa(lp8560
S'whether'
p8561
aI4279
aa(lp8562
S'coeurderoy'
p8563
aI4280
aa(lp8564
S'j'
p8565
aI4281
aa(lp8566
S'signed'
p8567
aI4282
aa(lp8568
S'record'
p8569
aI4283
aa(lp8570
S'converted'
p8571
aI4284
aa(lp8572
S'limit'
p8573
aI4285
aa(lp8574
S'ruling'
p8575
aI4286
aa(lp8576
S'distribution'
p8577
aI4287
aa(lp8578
S'makhno'
p8579
aI4288
aa(lp8580
S'display'
p8581
aI4289
aa(lp8582
S'qapik'
p8583
aI4290
aa(lp8584
S'advantages'
p8585
aI4291
aa(lp8586
S'1930s'
p8587
aI4292
aa(lp8588
S'south-north'
p8589
aI4293
aa(lp8590
S'recognize'
p8591
aI4294
aa(lp8592
S'received'
p8593
aI4295
aa(lp8594
S'denote'
p8595
aI4296
aa(lp8596
S'replica'
p8597
aI4297
aa(lp8598
S'manifesto'
p8599
aI4298
aa(lp8600
S'barcelona'
p8601
aI4299
aa(lp8602
S'our'
p8603
aI4300
aa(lp8604
S'in-between'
p8605
aI4301
aa(lp8606
S'subtropical'
p8607
aI4302
aa(lp8608
S'education'
p8609
aI4303
aa(lp8610
S'campus'
p8611
aI4304
aa(lp8612
S'domnall'
p8613
aI4305
aa(lp8614
S'functions'
p8615
aI4306
aa(lp8616
S'compared'
p8617
aI4307
aa(lp8618
S'1864'
p8619
aI4308
aa(lp8620
S'nonetheless'
p8621
aI4309
aa(lp8622
S'boop'
p8623
aI4310
aa(lp8624
S'agriculture'
p8625
aI4311
aa(lp8626
S'eastern'
p8627
aI4312
aa(lp8628
S'claiming'
p8629
aI4313
aa(lp8630
S'continually'
p8631
aI4314
aa(lp8632
S'illinois'
p8633
aI4315
aa(lp8634
S'oav'
p8635
aI4316
aa(lp8636
S'other'
p8637
aI4317
aa(lp8638
S'boom'
p8639
aI4318
aa(lp8640
S'branch'
p8641
aI4319
aa(lp8642
S'conclusion'
p8643
aI4320
aa(lp8644
S'sued'
p8645
aI4321
aa(lp8646
S'francisco'
p8647
aI4322
aa(lp8648
S'liberal'
p8649
aI4323
aa(lp8650
S'confederaci\xc3\xb3n'
p8651
aI4324
aa(lp8652
S'emerges'
p8653
aI4325
aa(lp8654
S'fluxing'
p8655
aI4326
aa(lp8656
S'setting'
p8657
aI4327
aa(lp8658
S'june'
p8659
aI4328
aa(lp8660
S'1961'
p8661
aI4329
aa(lp8662
S'inherently'
p8663
aI4330
aa(lp8664
S'margaret'
p8665
aI4331
aa(lp8666
S'mormaer'
p8667
aI4332
aa(lp8668
S'thoreau'
p8669
aI4333
aa(lp8670
S'inspiration'
p8671
aI4334
aa(lp8672
S'ghost'
p8673
aI4335
aa(lp8674
S'matt'
p8675
aI4336
aa(lp8676
S'\xe2\x80\x93'
p8677
aI4337
aa(lp8678
S'prevalent'
p8679
aI4338
aa(lp8680
S'bulwark'
p8681
aI4339
aa(lp8682
S'starting'
p8683
aI4340
aa(lp8684
S'privative'
p8685
aI4341
aa(lp8686
S'rule'
p8687
aI4342
aa(lp8688
S'indirectly'
p8689
aI4343
aa(lp8690
S'portion'
p8691
aI4344
aa(lp8692
S'compete'
p8693
aI4345
aa(lp8694
S'pupil'
p8695
aI4346
aa(lp8696
S'ideological'
p8697
aI4347
aa(lp8698
S'rural'
p8699
aI4348
aa(lp8700
S'50-bit'
p8701
aI4349
aa(lp8702
S'activism'
p8703
aI4350
aa(lp8704
S'nudists'
p8705
aI4351
aatp8706
Rp8707
.